
bomb:     file format elf64-x86-64


Disassembly of section .init:

0000000000001000 <_init>:
    1000:	48 83 ec 08          	sub    $0x8,%rsp
    1004:	48 8b 05 e5 3f 00 00 	mov    0x3fe5(%rip),%rax        # 4ff0 <__gmon_start__>
    100b:	48 85 c0             	test   %rax,%rax
    100e:	74 02                	je     1012 <_init+0x12>
    1010:	ff d0                	callq  *%rax
    1012:	48 83 c4 08          	add    $0x8,%rsp
    1016:	c3                   	retq   

Disassembly of section .plt:

0000000000001020 <.plt>:
    1020:	ff 35 e2 3f 00 00    	pushq  0x3fe2(%rip)        # 5008 <_GLOBAL_OFFSET_TABLE_+0x8>
    1026:	ff 25 e4 3f 00 00    	jmpq   *0x3fe4(%rip)        # 5010 <_GLOBAL_OFFSET_TABLE_+0x10>
    102c:	0f 1f 40 00          	nopl   0x0(%rax)

0000000000001030 <printf@plt>:
    1030:	ff 25 e2 3f 00 00    	jmpq   *0x3fe2(%rip)        # 5018 <printf@GLIBC_2.2.5>
    1036:	68 00 00 00 00       	pushq  $0x0
    103b:	e9 e0 ff ff ff       	jmpq   1020 <.plt>

0000000000001040 <sprintf@plt>:
    1040:	ff 25 da 3f 00 00    	jmpq   *0x3fda(%rip)        # 5020 <sprintf@GLIBC_2.2.5>
    1046:	68 01 00 00 00       	pushq  $0x1
    104b:	e9 d0 ff ff ff       	jmpq   1020 <.plt>

0000000000001050 <curl_free@plt>:
    1050:	ff 25 d2 3f 00 00    	jmpq   *0x3fd2(%rip)        # 5028 <curl_free@CURL_OPENSSL_4>
    1056:	68 02 00 00 00       	pushq  $0x2
    105b:	e9 c0 ff ff ff       	jmpq   1020 <.plt>

0000000000001060 <curl_global_init@plt>:
    1060:	ff 25 ca 3f 00 00    	jmpq   *0x3fca(%rip)        # 5030 <curl_global_init@CURL_OPENSSL_4>
    1066:	68 03 00 00 00       	pushq  $0x3
    106b:	e9 b0 ff ff ff       	jmpq   1020 <.plt>

0000000000001070 <curl_global_cleanup@plt>:
    1070:	ff 25 c2 3f 00 00    	jmpq   *0x3fc2(%rip)        # 5038 <curl_global_cleanup@CURL_OPENSSL_4>
    1076:	68 04 00 00 00       	pushq  $0x4
    107b:	e9 a0 ff ff ff       	jmpq   1020 <.plt>

0000000000001080 <curl_easy_getinfo@plt>:
    1080:	ff 25 ba 3f 00 00    	jmpq   *0x3fba(%rip)        # 5040 <curl_easy_getinfo@CURL_OPENSSL_4>
    1086:	68 05 00 00 00       	pushq  $0x5
    108b:	e9 90 ff ff ff       	jmpq   1020 <.plt>

0000000000001090 <calloc@plt>:
    1090:	ff 25 b2 3f 00 00    	jmpq   *0x3fb2(%rip)        # 5048 <calloc@GLIBC_2.2.5>
    1096:	68 06 00 00 00       	pushq  $0x6
    109b:	e9 80 ff ff ff       	jmpq   1020 <.plt>

00000000000010a0 <memcpy@plt>:
    10a0:	ff 25 aa 3f 00 00    	jmpq   *0x3faa(%rip)        # 5050 <memcpy@GLIBC_2.14>
    10a6:	68 07 00 00 00       	pushq  $0x7
    10ab:	e9 70 ff ff ff       	jmpq   1020 <.plt>

00000000000010b0 <strcpy@plt>:
    10b0:	ff 25 a2 3f 00 00    	jmpq   *0x3fa2(%rip)        # 5058 <strcpy@GLIBC_2.2.5>
    10b6:	68 08 00 00 00       	pushq  $0x8
    10bb:	e9 60 ff ff ff       	jmpq   1020 <.plt>

00000000000010c0 <__isoc99_sscanf@plt>:
    10c0:	ff 25 9a 3f 00 00    	jmpq   *0x3f9a(%rip)        # 5060 <__isoc99_sscanf@GLIBC_2.7>
    10c6:	68 09 00 00 00       	pushq  $0x9
    10cb:	e9 50 ff ff ff       	jmpq   1020 <.plt>

00000000000010d0 <fclose@plt>:
    10d0:	ff 25 92 3f 00 00    	jmpq   *0x3f92(%rip)        # 5068 <fclose@GLIBC_2.2.5>
    10d6:	68 0a 00 00 00       	pushq  $0xa
    10db:	e9 40 ff ff ff       	jmpq   1020 <.plt>

00000000000010e0 <__ctype_b_loc@plt>:
    10e0:	ff 25 8a 3f 00 00    	jmpq   *0x3f8a(%rip)        # 5070 <__ctype_b_loc@GLIBC_2.3>
    10e6:	68 0b 00 00 00       	pushq  $0xb
    10eb:	e9 30 ff ff ff       	jmpq   1020 <.plt>

00000000000010f0 <fputs@plt>:
    10f0:	ff 25 82 3f 00 00    	jmpq   *0x3f82(%rip)        # 5078 <fputs@GLIBC_2.2.5>
    10f6:	68 0c 00 00 00       	pushq  $0xc
    10fb:	e9 20 ff ff ff       	jmpq   1020 <.plt>

0000000000001100 <curl_easy_setopt@plt>:
    1100:	ff 25 7a 3f 00 00    	jmpq   *0x3f7a(%rip)        # 5080 <curl_easy_setopt@CURL_OPENSSL_4>
    1106:	68 0d 00 00 00       	pushq  $0xd
    110b:	e9 10 ff ff ff       	jmpq   1020 <.plt>

0000000000001110 <fopen@plt>:
    1110:	ff 25 72 3f 00 00    	jmpq   *0x3f72(%rip)        # 5088 <fopen@GLIBC_2.2.5>
    1116:	68 0e 00 00 00       	pushq  $0xe
    111b:	e9 00 ff ff ff       	jmpq   1020 <.plt>

0000000000001120 <free@plt>:
    1120:	ff 25 6a 3f 00 00    	jmpq   *0x3f6a(%rip)        # 5090 <free@GLIBC_2.2.5>
    1126:	68 0f 00 00 00       	pushq  $0xf
    112b:	e9 f0 fe ff ff       	jmpq   1020 <.plt>

0000000000001130 <exit@plt>:
    1130:	ff 25 62 3f 00 00    	jmpq   *0x3f62(%rip)        # 5098 <exit@GLIBC_2.2.5>
    1136:	68 10 00 00 00       	pushq  $0x10
    113b:	e9 e0 fe ff ff       	jmpq   1020 <.plt>

0000000000001140 <curl_easy_cleanup@plt>:
    1140:	ff 25 5a 3f 00 00    	jmpq   *0x3f5a(%rip)        # 50a0 <curl_easy_cleanup@CURL_OPENSSL_4>
    1146:	68 11 00 00 00       	pushq  $0x11
    114b:	e9 d0 fe ff ff       	jmpq   1020 <.plt>

0000000000001150 <fputc@plt>:
    1150:	ff 25 52 3f 00 00    	jmpq   *0x3f52(%rip)        # 50a8 <fputc@GLIBC_2.2.5>
    1156:	68 12 00 00 00       	pushq  $0x12
    115b:	e9 c0 fe ff ff       	jmpq   1020 <.plt>

0000000000001160 <curl_easy_init@plt>:
    1160:	ff 25 4a 3f 00 00    	jmpq   *0x3f4a(%rip)        # 50b0 <curl_easy_init@CURL_OPENSSL_4>
    1166:	68 13 00 00 00       	pushq  $0x13
    116b:	e9 b0 fe ff ff       	jmpq   1020 <.plt>

0000000000001170 <curl_easy_perform@plt>:
    1170:	ff 25 42 3f 00 00    	jmpq   *0x3f42(%rip)        # 50b8 <curl_easy_perform@CURL_OPENSSL_4>
    1176:	68 14 00 00 00       	pushq  $0x14
    117b:	e9 a0 fe ff ff       	jmpq   1020 <.plt>

0000000000001180 <strtol@plt>:
    1180:	ff 25 3a 3f 00 00    	jmpq   *0x3f3a(%rip)        # 50c0 <strtol@GLIBC_2.2.5>
    1186:	68 15 00 00 00       	pushq  $0x15
    118b:	e9 90 fe ff ff       	jmpq   1020 <.plt>

0000000000001190 <curl_easy_strerror@plt>:
    1190:	ff 25 32 3f 00 00    	jmpq   *0x3f32(%rip)        # 50c8 <curl_easy_strerror@CURL_OPENSSL_4>
    1196:	68 16 00 00 00       	pushq  $0x16
    119b:	e9 80 fe ff ff       	jmpq   1020 <.plt>

00000000000011a0 <puts@plt>:
    11a0:	ff 25 2a 3f 00 00    	jmpq   *0x3f2a(%rip)        # 50d0 <puts@GLIBC_2.2.5>
    11a6:	68 17 00 00 00       	pushq  $0x17
    11ab:	e9 70 fe ff ff       	jmpq   1020 <.plt>

00000000000011b0 <fgets@plt>:
    11b0:	ff 25 22 3f 00 00    	jmpq   *0x3f22(%rip)        # 50d8 <fgets@GLIBC_2.2.5>
    11b6:	68 18 00 00 00       	pushq  $0x18
    11bb:	e9 60 fe ff ff       	jmpq   1020 <.plt>

00000000000011c0 <snprintf@plt>:
    11c0:	ff 25 1a 3f 00 00    	jmpq   *0x3f1a(%rip)        # 50e0 <snprintf@GLIBC_2.2.5>
    11c6:	68 19 00 00 00       	pushq  $0x19
    11cb:	e9 50 fe ff ff       	jmpq   1020 <.plt>

00000000000011d0 <memmove@plt>:
    11d0:	ff 25 12 3f 00 00    	jmpq   *0x3f12(%rip)        # 50e8 <memmove@GLIBC_2.2.5>
    11d6:	68 1a 00 00 00       	pushq  $0x1a
    11db:	e9 40 fe ff ff       	jmpq   1020 <.plt>

00000000000011e0 <realloc@plt>:
    11e0:	ff 25 0a 3f 00 00    	jmpq   *0x3f0a(%rip)        # 50f0 <realloc@GLIBC_2.2.5>
    11e6:	68 1b 00 00 00       	pushq  $0x1b
    11eb:	e9 30 fe ff ff       	jmpq   1020 <.plt>

00000000000011f0 <access@plt>:
    11f0:	ff 25 02 3f 00 00    	jmpq   *0x3f02(%rip)        # 50f8 <access@GLIBC_2.2.5>
    11f6:	68 1c 00 00 00       	pushq  $0x1c
    11fb:	e9 20 fe ff ff       	jmpq   1020 <.plt>

0000000000001200 <curl_easy_escape@plt>:
    1200:	ff 25 fa 3e 00 00    	jmpq   *0x3efa(%rip)        # 5100 <curl_easy_escape@CURL_OPENSSL_4>
    1206:	68 1d 00 00 00       	pushq  $0x1d
    120b:	e9 10 fe ff ff       	jmpq   1020 <.plt>

Disassembly of section .plt.got:

0000000000001210 <__cxa_finalize@plt>:
    1210:	ff 25 c2 3d 00 00    	jmpq   *0x3dc2(%rip)        # 4fd8 <__cxa_finalize@GLIBC_2.2.5>
    1216:	66 90                	xchg   %ax,%ax

Disassembly of section .text:

0000000000001220 <_start>:
    1220:	31 ed                	xor    %ebp,%ebp
    1222:	49 89 d1             	mov    %rdx,%r9
    1225:	5e                   	pop    %rsi
    1226:	48 89 e2             	mov    %rsp,%rdx
    1229:	48 83 e4 f0          	and    $0xfffffffffffffff0,%rsp
    122d:	50                   	push   %rax
    122e:	54                   	push   %rsp
    122f:	4c 8d 05 da 0e 00 00 	lea    0xeda(%rip),%r8        # 2110 <__libc_csu_fini>
    1236:	48 8d 0d 73 0e 00 00 	lea    0xe73(%rip),%rcx        # 20b0 <__libc_csu_init>
    123d:	48 8d 3d fc 01 00 00 	lea    0x1fc(%rip),%rdi        # 1440 <main>
    1244:	ff 15 9e 3d 00 00    	callq  *0x3d9e(%rip)        # 4fe8 <__libc_start_main@GLIBC_2.2.5>
    124a:	f4                   	hlt    
    124b:	0f 1f 44 00 00       	nopl   0x0(%rax,%rax,1)

0000000000001250 <deregister_tm_clones>:
    1250:	48 8d 3d 89 3f 00 00 	lea    0x3f89(%rip),%rdi        # 51e0 <stdin@@GLIBC_2.2.5>
    1257:	48 8d 05 82 3f 00 00 	lea    0x3f82(%rip),%rax        # 51e0 <stdin@@GLIBC_2.2.5>
    125e:	48 39 f8             	cmp    %rdi,%rax
    1261:	74 15                	je     1278 <deregister_tm_clones+0x28>
    1263:	48 8b 05 76 3d 00 00 	mov    0x3d76(%rip),%rax        # 4fe0 <_ITM_deregisterTMCloneTable>
    126a:	48 85 c0             	test   %rax,%rax
    126d:	74 09                	je     1278 <deregister_tm_clones+0x28>
    126f:	ff e0                	jmpq   *%rax
    1271:	0f 1f 80 00 00 00 00 	nopl   0x0(%rax)
    1278:	c3                   	retq   
    1279:	0f 1f 80 00 00 00 00 	nopl   0x0(%rax)

0000000000001280 <register_tm_clones>:
    1280:	48 8d 3d 59 3f 00 00 	lea    0x3f59(%rip),%rdi        # 51e0 <stdin@@GLIBC_2.2.5>
    1287:	48 8d 35 52 3f 00 00 	lea    0x3f52(%rip),%rsi        # 51e0 <stdin@@GLIBC_2.2.5>
    128e:	48 29 fe             	sub    %rdi,%rsi
    1291:	48 89 f0             	mov    %rsi,%rax
    1294:	48 c1 ee 3f          	shr    $0x3f,%rsi
    1298:	48 c1 f8 03          	sar    $0x3,%rax
    129c:	48 01 c6             	add    %rax,%rsi
    129f:	48 d1 fe             	sar    %rsi
    12a2:	74 14                	je     12b8 <register_tm_clones+0x38>
    12a4:	48 8b 05 4d 3d 00 00 	mov    0x3d4d(%rip),%rax        # 4ff8 <_ITM_registerTMCloneTable>
    12ab:	48 85 c0             	test   %rax,%rax
    12ae:	74 08                	je     12b8 <register_tm_clones+0x38>
    12b0:	ff e0                	jmpq   *%rax
    12b2:	66 0f 1f 44 00 00    	nopw   0x0(%rax,%rax,1)
    12b8:	c3                   	retq   
    12b9:	0f 1f 80 00 00 00 00 	nopl   0x0(%rax)

00000000000012c0 <__do_global_dtors_aux>:
    12c0:	80 3d 21 3f 00 00 00 	cmpb   $0x0,0x3f21(%rip)        # 51e8 <completed.7444>
    12c7:	75 2f                	jne    12f8 <__do_global_dtors_aux+0x38>
    12c9:	55                   	push   %rbp
    12ca:	48 83 3d 06 3d 00 00 	cmpq   $0x0,0x3d06(%rip)        # 4fd8 <__cxa_finalize@GLIBC_2.2.5>
    12d1:	00 
    12d2:	48 89 e5             	mov    %rsp,%rbp
    12d5:	74 0c                	je     12e3 <__do_global_dtors_aux+0x23>
    12d7:	48 8b 3d 4a 3e 00 00 	mov    0x3e4a(%rip),%rdi        # 5128 <__dso_handle>
    12de:	e8 2d ff ff ff       	callq  1210 <__cxa_finalize@plt>
    12e3:	e8 68 ff ff ff       	callq  1250 <deregister_tm_clones>
    12e8:	c6 05 f9 3e 00 00 01 	movb   $0x1,0x3ef9(%rip)        # 51e8 <completed.7444>
    12ef:	5d                   	pop    %rbp
    12f0:	c3                   	retq   
    12f1:	0f 1f 80 00 00 00 00 	nopl   0x0(%rax)
    12f8:	c3                   	retq   
    12f9:	0f 1f 80 00 00 00 00 	nopl   0x0(%rax)

0000000000001300 <frame_dummy>:
    1300:	e9 7b ff ff ff       	jmpq   1280 <register_tm_clones>

0000000000001305 <send_msg>:
    1305:	48 81 ec 08 20 00 00 	sub    $0x2008,%rsp
    130c:	89 f1                	mov    %esi,%ecx
    130e:	49 89 d0             	mov    %rdx,%r8
    1311:	49 89 e1             	mov    %rsp,%r9
    1314:	89 fa                	mov    %edi,%edx
    1316:	48 8d 35 43 3e 00 00 	lea    0x3e43(%rip),%rsi        # 5160 <user_password>
    131d:	48 8d 3d 5d 3e 00 00 	lea    0x3e5d(%rip),%rdi        # 5181 <user_id>
    1324:	e8 06 0b 00 00       	callq  1e2f <driver_post>
    1329:	85 c0                	test   %eax,%eax
    132b:	75 08                	jne    1335 <send_msg+0x30>
    132d:	48 81 c4 08 20 00 00 	add    $0x2008,%rsp
    1334:	c3                   	retq   
    1335:	48 89 e6             	mov    %rsp,%rsi
    1338:	48 8d 3d c5 1c 00 00 	lea    0x1cc5(%rip),%rdi        # 3004 <_IO_stdin_used+0x4>
    133f:	b8 00 00 00 00       	mov    $0x0,%eax
    1344:	e8 e7 fc ff ff       	callq  1030 <printf@plt>
    1349:	bf 01 00 00 00       	mov    $0x1,%edi
    134e:	e8 dd fd ff ff       	callq  1130 <exit@plt>

0000000000001353 <initialize_bomb>:
    1353:	48 81 ec 08 20 00 00 	sub    $0x2008,%rsp
    135a:	48 89 e2             	mov    %rsp,%rdx
    135d:	48 8d 35 fc 3d 00 00 	lea    0x3dfc(%rip),%rsi        # 5160 <user_password>
    1364:	48 8d 3d 16 3e 00 00 	lea    0x3e16(%rip),%rdi        # 5181 <user_id>
    136b:	e8 b3 09 00 00       	callq  1d23 <init_driver>
    1370:	85 c0                	test   %eax,%eax
    1372:	75 08                	jne    137c <initialize_bomb+0x29>
    1374:	48 81 c4 08 20 00 00 	add    $0x2008,%rsp
    137b:	c3                   	retq   
    137c:	48 89 e6             	mov    %rsp,%rsi
    137f:	48 8d 3d 62 1d 00 00 	lea    0x1d62(%rip),%rdi        # 30e8 <_IO_stdin_used+0xe8>
    1386:	b8 00 00 00 00       	mov    $0x0,%eax
    138b:	e8 a0 fc ff ff       	callq  1030 <printf@plt>
    1390:	bf 01 00 00 00       	mov    $0x1,%edi
    1395:	e8 96 fd ff ff       	callq  1130 <exit@plt>

000000000000139a <phase_defused>:
    139a:	48 83 ec 08          	sub    $0x8,%rsp
    139e:	48 89 f2             	mov    %rsi,%rdx
    13a1:	89 fe                	mov    %edi,%esi
    13a3:	bf 01 00 00 00       	mov    $0x1,%edi
    13a8:	e8 58 ff ff ff       	callq  1305 <send_msg>
    13ad:	48 83 c4 08          	add    $0x8,%rsp
    13b1:	c3                   	retq   

00000000000013b2 <explode_bomb>:
    13b2:	48 83 ec 08          	sub    $0x8,%rsp
    13b6:	48 89 f2             	mov    %rsi,%rdx
    13b9:	89 fe                	mov    %edi,%esi
    13bb:	bf 00 00 00 00       	mov    $0x0,%edi
    13c0:	e8 40 ff ff ff       	callq  1305 <send_msg>
    13c5:	48 83 c4 08          	add    $0x8,%rsp
    13c9:	c3                   	retq   

00000000000013ca <strip>:
    13ca:	41 54                	push   %r12
    13cc:	55                   	push   %rbp
    13cd:	53                   	push   %rbx
    13ce:	49 89 fc             	mov    %rdi,%r12
    13d1:	48 89 fd             	mov    %rdi,%rbp
    13d4:	e8 07 fd ff ff       	callq  10e0 <__ctype_b_loc@plt>
    13d9:	48 8b 10             	mov    (%rax),%rdx
    13dc:	0f b6 45 00          	movzbl 0x0(%rbp),%eax
    13e0:	0f b6 c8             	movzbl %al,%ecx
    13e3:	f6 44 4a 01 20       	testb  $0x20,0x1(%rdx,%rcx,2)
    13e8:	74 06                	je     13f0 <strip+0x26>
    13ea:	48 83 c5 01          	add    $0x1,%rbp
    13ee:	eb e4                	jmp    13d4 <strip+0xa>
    13f0:	84 c0                	test   %al,%al
    13f2:	75 21                	jne    1415 <strip+0x4b>
    13f4:	bb 00 00 00 00       	mov    $0x0,%ebx
    13f9:	4c 39 e5             	cmp    %r12,%rbp
    13fc:	74 0f                	je     140d <strip+0x43>
    13fe:	48 8d 53 01          	lea    0x1(%rbx),%rdx
    1402:	48 89 ee             	mov    %rbp,%rsi
    1405:	4c 89 e7             	mov    %r12,%rdi
    1408:	e8 c3 fd ff ff       	callq  11d0 <memmove@plt>
    140d:	48 89 d8             	mov    %rbx,%rax
    1410:	5b                   	pop    %rbx
    1411:	5d                   	pop    %rbp
    1412:	41 5c                	pop    %r12
    1414:	c3                   	retq   
    1415:	48 89 e8             	mov    %rbp,%rax
    1418:	80 38 00             	cmpb   $0x0,(%rax)
    141b:	74 06                	je     1423 <strip+0x59>
    141d:	48 83 c0 01          	add    $0x1,%rax
    1421:	eb f5                	jmp    1418 <strip+0x4e>
    1423:	48 89 c6             	mov    %rax,%rsi
    1426:	48 83 e8 01          	sub    $0x1,%rax
    142a:	0f b6 08             	movzbl (%rax),%ecx
    142d:	f6 44 4a 01 20       	testb  $0x20,0x1(%rdx,%rcx,2)
    1432:	75 ef                	jne    1423 <strip+0x59>
    1434:	c6 06 00             	movb   $0x0,(%rsi)
    1437:	48 29 e8             	sub    %rbp,%rax
    143a:	48 8d 58 01          	lea    0x1(%rax),%rbx
    143e:	eb b9                	jmp    13f9 <strip+0x2f>

0000000000001440 <main>:
    1440:	55                   	push   %rbp
    1441:	53                   	push   %rbx
    1442:	48 81 ec 88 01 00 00 	sub    $0x188,%rsp
    1449:	83 ff 02             	cmp    $0x2,%edi
    144c:	74 16                	je     1464 <main+0x24>
    144e:	48 8d 3d bb 1c 00 00 	lea    0x1cbb(%rip),%rdi        # 3110 <_IO_stdin_used+0x110>
    1455:	e8 46 fd ff ff       	callq  11a0 <puts@plt>
    145a:	bf 01 00 00 00       	mov    $0x1,%edi
    145f:	e8 cc fc ff ff       	callq  1130 <exit@plt>
    1464:	48 89 f3             	mov    %rsi,%rbx
    1467:	48 8d 74 24 08       	lea    0x8(%rsp),%rsi
    146c:	48 8b 7b 08          	mov    0x8(%rbx),%rdi
    1470:	ba 0a 00 00 00       	mov    $0xa,%edx
    1475:	e8 06 fd ff ff       	callq  1180 <strtol@plt>
    147a:	48 89 c5             	mov    %rax,%rbp
    147d:	48 8b 73 08          	mov    0x8(%rbx),%rsi
    1481:	48 3b 74 24 08       	cmp    0x8(%rsp),%rsi
    1486:	74 28                	je     14b0 <main+0x70>
    1488:	48 8d 40 ff          	lea    -0x1(%rax),%rax
    148c:	48 83 f8 06          	cmp    $0x6,%rax
    1490:	76 39                	jbe    14cb <main+0x8b>
    1492:	48 89 ee             	mov    %rbp,%rsi
    1495:	48 8d 3d f4 1c 00 00 	lea    0x1cf4(%rip),%rdi        # 3190 <_IO_stdin_used+0x190>
    149c:	b8 00 00 00 00       	mov    $0x0,%eax
    14a1:	e8 8a fb ff ff       	callq  1030 <printf@plt>
    14a6:	bf 01 00 00 00       	mov    $0x1,%edi
    14ab:	e8 80 fc ff ff       	callq  1130 <exit@plt>
    14b0:	48 8d 3d a1 1c 00 00 	lea    0x1ca1(%rip),%rdi        # 3158 <_IO_stdin_used+0x158>
    14b7:	b8 00 00 00 00       	mov    $0x0,%eax
    14bc:	e8 6f fb ff ff       	callq  1030 <printf@plt>
    14c1:	bf 01 00 00 00       	mov    $0x1,%edi
    14c6:	e8 65 fc ff ff       	callq  1130 <exit@plt>
    14cb:	48 8d 9c 24 60 01 00 	lea    0x160(%rsp),%rbx
    14d2:	00 
    14d3:	89 e9                	mov    %ebp,%ecx
    14d5:	48 8d 15 33 1b 00 00 	lea    0x1b33(%rip),%rdx        # 300f <_IO_stdin_used+0xf>
    14dc:	be 14 00 00 00       	mov    $0x14,%esi
    14e1:	48 89 df             	mov    %rbx,%rdi
    14e4:	b8 00 00 00 00       	mov    $0x0,%eax
    14e9:	e8 d2 fc ff ff       	callq  11c0 <snprintf@plt>
    14ee:	be 00 00 00 00       	mov    $0x0,%esi
    14f3:	48 89 df             	mov    %rbx,%rdi
    14f6:	e8 f5 fc ff ff       	callq  11f0 <access@plt>
    14fb:	85 c0                	test   %eax,%eax
    14fd:	75 1e                	jne    151d <main+0xdd>
    14ff:	48 8d b4 24 60 01 00 	lea    0x160(%rsp),%rsi
    1506:	00 
    1507:	48 8d 3d ba 1c 00 00 	lea    0x1cba(%rip),%rdi        # 31c8 <_IO_stdin_used+0x1c8>
    150e:	e8 1d fb ff ff       	callq  1030 <printf@plt>
    1513:	bf 01 00 00 00       	mov    $0x1,%edi
    1518:	e8 13 fc ff ff       	callq  1130 <exit@plt>
    151d:	48 8d 05 ff 02 00 00 	lea    0x2ff(%rip),%rax        # 1823 <phase_1>
    1524:	48 89 84 24 20 01 00 	mov    %rax,0x120(%rsp)
    152b:	00 
    152c:	48 8d 05 08 03 00 00 	lea    0x308(%rip),%rax        # 183b <phase_2>
    1533:	48 89 84 24 28 01 00 	mov    %rax,0x128(%rsp)
    153a:	00 
    153b:	48 8d 05 70 03 00 00 	lea    0x370(%rip),%rax        # 18b2 <phase_3>
    1542:	48 89 84 24 30 01 00 	mov    %rax,0x130(%rsp)
    1549:	00 
    154a:	48 8d 05 c4 03 00 00 	lea    0x3c4(%rip),%rax        # 1915 <phase_4>
    1551:	48 89 84 24 38 01 00 	mov    %rax,0x138(%rsp)
    1558:	00 
    1559:	48 8d 05 ca 04 00 00 	lea    0x4ca(%rip),%rax        # 1a2a <phase_5>
    1560:	48 89 84 24 40 01 00 	mov    %rax,0x140(%rsp)
    1567:	00 
    1568:	48 8d 05 34 05 00 00 	lea    0x534(%rip),%rax        # 1aa3 <phase_6>
    156f:	48 89 84 24 48 01 00 	mov    %rax,0x148(%rsp)
    1576:	00 
    1577:	48 8d 05 34 06 00 00 	lea    0x634(%rip),%rax        # 1bb2 <phase_7>
    157e:	48 89 84 24 50 01 00 	mov    %rax,0x150(%rsp)
    1585:	00 
    1586:	48 8d 05 7b 1c 00 00 	lea    0x1c7b(%rip),%rax        # 3208 <_IO_stdin_used+0x208>
    158d:	48 89 84 24 e0 00 00 	mov    %rax,0xe0(%rsp)
    1594:	00 
    1595:	48 8d 05 94 1c 00 00 	lea    0x1c94(%rip),%rax        # 3230 <_IO_stdin_used+0x230>
    159c:	48 89 84 24 e8 00 00 	mov    %rax,0xe8(%rsp)
    15a3:	00 
    15a4:	48 8d 05 ad 1c 00 00 	lea    0x1cad(%rip),%rax        # 3258 <_IO_stdin_used+0x258>
    15ab:	48 89 84 24 f0 00 00 	mov    %rax,0xf0(%rsp)
    15b2:	00 
    15b3:	48 8d 05 c6 1c 00 00 	lea    0x1cc6(%rip),%rax        # 3280 <_IO_stdin_used+0x280>
    15ba:	48 89 84 24 f8 00 00 	mov    %rax,0xf8(%rsp)
    15c1:	00 
    15c2:	48 8d 05 50 1a 00 00 	lea    0x1a50(%rip),%rax        # 3019 <_IO_stdin_used+0x19>
    15c9:	48 89 84 24 00 01 00 	mov    %rax,0x100(%rsp)
    15d0:	00 
    15d1:	48 8d 05 5f 1a 00 00 	lea    0x1a5f(%rip),%rax        # 3037 <_IO_stdin_used+0x37>
    15d8:	48 89 84 24 08 01 00 	mov    %rax,0x108(%rsp)
    15df:	00 
    15e0:	48 8d 05 6e 1a 00 00 	lea    0x1a6e(%rip),%rax        # 3055 <_IO_stdin_used+0x55>
    15e7:	48 89 84 24 10 01 00 	mov    %rax,0x110(%rsp)
    15ee:	00 
    15ef:	e8 5f fd ff ff       	callq  1353 <initialize_bomb>
    15f4:	48 8d 3d ad 1c 00 00 	lea    0x1cad(%rip),%rdi        # 32a8 <_IO_stdin_used+0x2a8>
    15fb:	e8 a0 fb ff ff       	callq  11a0 <puts@plt>
    1600:	89 ee                	mov    %ebp,%esi
    1602:	48 8d 3d cf 1c 00 00 	lea    0x1ccf(%rip),%rdi        # 32d8 <_IO_stdin_used+0x2d8>
    1609:	b8 00 00 00 00       	mov    $0x0,%eax
    160e:	e8 1d fa ff ff       	callq  1030 <printf@plt>
    1613:	48 8d 3d 51 1a 00 00 	lea    0x1a51(%rip),%rdi        # 306b <_IO_stdin_used+0x6b>
    161a:	e8 81 fb ff ff       	callq  11a0 <puts@plt>
    161f:	48 8d 7c 24 10       	lea    0x10(%rsp),%rdi
    1624:	48 8b 15 b5 3b 00 00 	mov    0x3bb5(%rip),%rdx        # 51e0 <stdin@@GLIBC_2.2.5>
    162b:	be c8 00 00 00       	mov    $0xc8,%esi
    1630:	e8 7b fb ff ff       	callq  11b0 <fgets@plt>
    1635:	48 85 c0             	test   %rax,%rax
    1638:	0f 84 c8 00 00 00    	je     1706 <main+0x2c6>
    163e:	48 8d 3d c9 19 00 00 	lea    0x19c9(%rip),%rdi        # 300e <_IO_stdin_used+0xe>
    1645:	e8 56 fb ff ff       	callq  11a0 <puts@plt>
    164a:	48 8d 7c 24 10       	lea    0x10(%rsp),%rdi
    164f:	e8 76 fd ff ff       	callq  13ca <strip>
    1654:	80 7c 24 10 00       	cmpb   $0x0,0x10(%rsp)
    1659:	0f 84 bd 00 00 00    	je     171c <main+0x2dc>
    165f:	8d 5d ff             	lea    -0x1(%rbp),%ebx
    1662:	48 63 c3             	movslq %ebx,%rax
    1665:	48 8d 7c 24 10       	lea    0x10(%rsp),%rdi
    166a:	ff 94 c4 20 01 00 00 	callq  *0x120(%rsp,%rax,8)
    1671:	85 c0                	test   %eax,%eax
    1673:	0f 85 dc 00 00 00    	jne    1755 <main+0x315>
    1679:	48 8d 74 24 10       	lea    0x10(%rsp),%rsi
    167e:	89 ef                	mov    %ebp,%edi
    1680:	e8 15 fd ff ff       	callq  139a <phase_defused>
    1685:	48 8d bc 24 60 01 00 	lea    0x160(%rsp),%rdi
    168c:	00 
    168d:	48 8d 35 11 1a 00 00 	lea    0x1a11(%rip),%rsi        # 30a5 <_IO_stdin_used+0xa5>
    1694:	e8 77 fa ff ff       	callq  1110 <fopen@plt>
    1699:	48 89 c5             	mov    %rax,%rbp
    169c:	48 85 c0             	test   %rax,%rax
    169f:	0f 84 8d 00 00 00    	je     1732 <main+0x2f2>
    16a5:	48 8d 7c 24 10       	lea    0x10(%rsp),%rdi
    16aa:	48 89 c6             	mov    %rax,%rsi
    16ad:	e8 3e fa ff ff       	callq  10f0 <fputs@plt>
    16b2:	48 89 ee             	mov    %rbp,%rsi
    16b5:	bf 0a 00 00 00       	mov    $0xa,%edi
    16ba:	e8 91 fa ff ff       	callq  1150 <fputc@plt>
    16bf:	48 89 ef             	mov    %rbp,%rdi
    16c2:	e8 09 fa ff ff       	callq  10d0 <fclose@plt>
    16c7:	48 63 db             	movslq %ebx,%rbx
    16ca:	48 8b b4 dc e0 00 00 	mov    0xe0(%rsp,%rbx,8),%rsi
    16d1:	00 
    16d2:	48 8d 3d ce 19 00 00 	lea    0x19ce(%rip),%rdi        # 30a7 <_IO_stdin_used+0xa7>
    16d9:	b8 00 00 00 00       	mov    $0x0,%eax
    16de:	e8 4d f9 ff ff       	callq  1030 <printf@plt>
    16e3:	48 8d b4 24 60 01 00 	lea    0x160(%rsp),%rsi
    16ea:	00 
    16eb:	48 8d 3d 56 1c 00 00 	lea    0x1c56(%rip),%rdi        # 3348 <_IO_stdin_used+0x348>
    16f2:	b8 00 00 00 00       	mov    $0x0,%eax
    16f7:	e8 34 f9 ff ff       	callq  1030 <printf@plt>
    16fc:	bf 00 00 00 00       	mov    $0x0,%edi
    1701:	e8 2a fa ff ff       	callq  1130 <exit@plt>
    1706:	48 8d 3d 73 19 00 00 	lea    0x1973(%rip),%rdi        # 3080 <_IO_stdin_used+0x80>
    170d:	e8 8e fa ff ff       	callq  11a0 <puts@plt>
    1712:	bf 01 00 00 00       	mov    $0x1,%edi
    1717:	e8 14 fa ff ff       	callq  1130 <exit@plt>
    171c:	48 8d 3d 6e 19 00 00 	lea    0x196e(%rip),%rdi        # 3091 <_IO_stdin_used+0x91>
    1723:	e8 78 fa ff ff       	callq  11a0 <puts@plt>
    1728:	bf 01 00 00 00       	mov    $0x1,%edi
    172d:	e8 fe f9 ff ff       	callq  1130 <exit@plt>
    1732:	48 8d b4 24 60 01 00 	lea    0x160(%rsp),%rsi
    1739:	00 
    173a:	48 8d 3d c7 1b 00 00 	lea    0x1bc7(%rip),%rdi        # 3308 <_IO_stdin_used+0x308>
    1741:	b8 00 00 00 00       	mov    $0x0,%eax
    1746:	e8 e5 f8 ff ff       	callq  1030 <printf@plt>
    174b:	bf 01 00 00 00       	mov    $0x1,%edi
    1750:	e8 db f9 ff ff       	callq  1130 <exit@plt>
    1755:	48 8d 74 24 10       	lea    0x10(%rsp),%rsi
    175a:	89 ef                	mov    %ebp,%edi
    175c:	e8 51 fc ff ff       	callq  13b2 <explode_bomb>
    1761:	48 8d 3d 55 19 00 00 	lea    0x1955(%rip),%rdi        # 30bd <_IO_stdin_used+0xbd>
    1768:	e8 33 fa ff ff       	callq  11a0 <puts@plt>
    176d:	48 8d 3d 5a 19 00 00 	lea    0x195a(%rip),%rdi        # 30ce <_IO_stdin_used+0xce>
    1774:	e8 27 fa ff ff       	callq  11a0 <puts@plt>
    1779:	48 8d 3d 00 1c 00 00 	lea    0x1c00(%rip),%rdi        # 3380 <_IO_stdin_used+0x380>
    1780:	e8 1b fa ff ff       	callq  11a0 <puts@plt>
    1785:	bf 02 00 00 00       	mov    $0x2,%edi
    178a:	e8 a1 f9 ff ff       	callq  1130 <exit@plt>

000000000000178f <read_six_numbers>:
    178f:	48 83 ec 08          	sub    $0x8,%rsp
    1793:	48 89 f2             	mov    %rsi,%rdx
    1796:	48 8d 4e 04          	lea    0x4(%rsi),%rcx
    179a:	48 8d 46 14          	lea    0x14(%rsi),%rax
    179e:	50                   	push   %rax
    179f:	48 8d 46 10          	lea    0x10(%rsi),%rax
    17a3:	50                   	push   %rax
    17a4:	4c 8d 4e 0c          	lea    0xc(%rsi),%r9
    17a8:	4c 8d 46 08          	lea    0x8(%rsi),%r8
    17ac:	48 8d 35 f4 1b 00 00 	lea    0x1bf4(%rip),%rsi        # 33a7 <_IO_stdin_used+0x3a7>
    17b3:	b8 00 00 00 00       	mov    $0x0,%eax
    17b8:	e8 03 f9 ff ff       	callq  10c0 <__isoc99_sscanf@plt>
    17bd:	48 83 c4 18          	add    $0x18,%rsp
    17c1:	c3                   	retq   

00000000000017c2 <string_length>:
    17c2:	b8 00 00 00 00       	mov    $0x0,%eax
    17c7:	80 3f 00             	cmpb   $0x0,(%rdi)
    17ca:	74 09                	je     17d5 <string_length+0x13>
    17cc:	48 83 c7 01          	add    $0x1,%rdi
    17d0:	83 c0 01             	add    $0x1,%eax
    17d3:	eb f2                	jmp    17c7 <string_length+0x5>
    17d5:	c3                   	retq   

00000000000017d6 <strings_not_equal>:
    17d6:	41 54                	push   %r12
    17d8:	55                   	push   %rbp
    17d9:	53                   	push   %rbx
    17da:	48 89 fb             	mov    %rdi,%rbx
    17dd:	48 89 f5             	mov    %rsi,%rbp
    17e0:	e8 dd ff ff ff       	callq  17c2 <string_length>
    17e5:	41 89 c4             	mov    %eax,%r12d
    17e8:	48 89 ef             	mov    %rbp,%rdi
    17eb:	e8 d2 ff ff ff       	callq  17c2 <string_length>
    17f0:	41 39 c4             	cmp    %eax,%r12d
    17f3:	75 1d                	jne    1812 <strings_not_equal+0x3c>
    17f5:	0f b6 03             	movzbl (%rbx),%eax
    17f8:	84 c0                	test   %al,%al
    17fa:	74 0f                	je     180b <strings_not_equal+0x35>
    17fc:	38 45 00             	cmp    %al,0x0(%rbp)
    17ff:	75 1b                	jne    181c <strings_not_equal+0x46>
    1801:	48 83 c3 01          	add    $0x1,%rbx
    1805:	48 83 c5 01          	add    $0x1,%rbp
    1809:	eb ea                	jmp    17f5 <strings_not_equal+0x1f>
    180b:	b8 00 00 00 00       	mov    $0x0,%eax
    1810:	eb 05                	jmp    1817 <strings_not_equal+0x41>
    1812:	b8 01 00 00 00       	mov    $0x1,%eax
    1817:	5b                   	pop    %rbx
    1818:	5d                   	pop    %rbp
    1819:	41 5c                	pop    %r12
    181b:	c3                   	retq   
    181c:	b8 01 00 00 00       	mov    $0x1,%eax
    1821:	eb f4                	jmp    1817 <strings_not_equal+0x41>

0000000000001823 <phase_1>:
    1823:	48 8d 35 96 1b 00 00 	lea    0x1b96(%rip),%rsi        # 33c0 <_IO_stdin_used+0x3c0>
    182a:	e8 a7 ff ff ff       	callq  17d6 <strings_not_equal>
    182f:	85 c0                	test   %eax,%eax
    1831:	75 01                	jne    1834 <phase_1+0x11>
    1833:	c3                   	retq   
    1834:	b8 01 00 00 00       	mov    $0x1,%eax
    1839:	eb f8                	jmp    1833 <phase_1+0x10>

000000000000183b <phase_2>:
    183b:	48 83 ec 18          	sub    $0x18,%rsp
    183f:	48 8d 4c 24 08       	lea    0x8(%rsp),%rcx
    1844:	48 8d 54 24 0c       	lea    0xc(%rsp),%rdx
    1849:	48 8d 35 63 1b 00 00 	lea    0x1b63(%rip),%rsi        # 33b3 <_IO_stdin_used+0x3b3>
    1850:	b8 00 00 00 00       	mov    $0x0,%eax
    1855:	e8 66 f8 ff ff       	callq  10c0 <__isoc99_sscanf@plt>
    185a:	83 f8 01             	cmp    $0x1,%eax
    185d:	7e 26                	jle    1885 <phase_2+0x4a>
    185f:	8b 44 24 0c          	mov    0xc(%rsp),%eax
    1863:	85 c0                	test   %eax,%eax
    1865:	74 28                	je     188f <phase_2+0x54>
    1867:	8b 54 24 08          	mov    0x8(%rsp),%edx
    186b:	85 d2                	test   %edx,%edx
    186d:	74 27                	je     1896 <phase_2+0x5b>
    186f:	a8 01                	test   $0x1,%al
    1871:	75 2a                	jne    189d <phase_2+0x62>
    1873:	39 d0                	cmp    %edx,%eax
    1875:	7e 2d                	jle    18a4 <phase_2+0x69>
    1877:	01 d0                	add    %edx,%eax
    1879:	83 f8 7b             	cmp    $0x7b,%eax
    187c:	75 2d                	jne    18ab <phase_2+0x70>
    187e:	b8 00 00 00 00       	mov    $0x0,%eax
    1883:	eb 05                	jmp    188a <phase_2+0x4f>
    1885:	b8 01 00 00 00       	mov    $0x1,%eax
    188a:	48 83 c4 18          	add    $0x18,%rsp
    188e:	c3                   	retq   
    188f:	b8 01 00 00 00       	mov    $0x1,%eax
    1894:	eb f4                	jmp    188a <phase_2+0x4f>
    1896:	b8 01 00 00 00       	mov    $0x1,%eax
    189b:	eb ed                	jmp    188a <phase_2+0x4f>
    189d:	b8 01 00 00 00       	mov    $0x1,%eax
    18a2:	eb e6                	jmp    188a <phase_2+0x4f>
    18a4:	b8 01 00 00 00       	mov    $0x1,%eax
    18a9:	eb df                	jmp    188a <phase_2+0x4f>
    18ab:	b8 01 00 00 00       	mov    $0x1,%eax
    18b0:	eb d8                	jmp    188a <phase_2+0x4f>

00000000000018b2 <phase_3>:
    18b2:	48 83 ec 28          	sub    $0x28,%rsp
    18b6:	48 89 e6             	mov    %rsp,%rsi
    18b9:	e8 d1 fe ff ff       	callq  178f <read_six_numbers>
    18be:	83 f8 06             	cmp    $0x6,%eax
    18c1:	75 3a                	jne    18fd <phase_3+0x4b>
    18c3:	81 3c 24 f9 02 00 00 	cmpl   $0x2f9,(%rsp)
    18ca:	75 3b                	jne    1907 <phase_3+0x55>
    18cc:	be 60 00 00 00       	mov    $0x60,%esi
    18d1:	b8 01 00 00 00       	mov    $0x1,%eax
    18d6:	83 f8 05             	cmp    $0x5,%eax
    18d9:	7f 1b                	jg     18f6 <phase_3+0x44>
    18db:	48 63 d0             	movslq %eax,%rdx
    18de:	8d 48 ff             	lea    -0x1(%rax),%ecx
    18e1:	48 63 c9             	movslq %ecx,%rcx
    18e4:	89 f7                	mov    %esi,%edi
    18e6:	2b 3c 8c             	sub    (%rsp,%rcx,4),%edi
    18e9:	39 3c 94             	cmp    %edi,(%rsp,%rdx,4)
    18ec:	75 20                	jne    190e <phase_3+0x5c>
    18ee:	83 c6 60             	add    $0x60,%esi
    18f1:	83 c0 01             	add    $0x1,%eax
    18f4:	eb e0                	jmp    18d6 <phase_3+0x24>
    18f6:	b8 00 00 00 00       	mov    $0x0,%eax
    18fb:	eb 05                	jmp    1902 <phase_3+0x50>
    18fd:	b8 01 00 00 00       	mov    $0x1,%eax
    1902:	48 83 c4 28          	add    $0x28,%rsp
    1906:	c3                   	retq   
    1907:	b8 01 00 00 00       	mov    $0x1,%eax
    190c:	eb f4                	jmp    1902 <phase_3+0x50>
    190e:	b8 01 00 00 00       	mov    $0x1,%eax
    1913:	eb ed                	jmp    1902 <phase_3+0x50>

0000000000001915 <phase_4>:
    1915:	48 83 ec 18          	sub    $0x18,%rsp
    1919:	48 8d 4c 24 08       	lea    0x8(%rsp),%rcx
    191e:	48 8d 54 24 0c       	lea    0xc(%rsp),%rdx
    1923:	48 8d 35 89 1a 00 00 	lea    0x1a89(%rip),%rsi        # 33b3 <_IO_stdin_used+0x3b3>
    192a:	b8 00 00 00 00       	mov    $0x0,%eax
    192f:	e8 8c f7 ff ff       	callq  10c0 <__isoc99_sscanf@plt>
    1934:	83 f8 01             	cmp    $0x1,%eax
    1937:	0f 8e 95 00 00 00    	jle    19d2 <phase_4+0xbd>
    193d:	8b 74 24 08          	mov    0x8(%rsp),%esi
    1941:	85 f6                	test   %esi,%esi
    1943:	0f 88 93 00 00 00    	js     19dc <phase_4+0xc7>
    1949:	8b 4c 24 0c          	mov    0xc(%rsp),%ecx
    194d:	83 f9 07             	cmp    $0x7,%ecx
    1950:	0f 87 8d 00 00 00    	ja     19e3 <phase_4+0xce>
    1956:	89 ca                	mov    %ecx,%edx
    1958:	48 8d 3d 91 1a 00 00 	lea    0x1a91(%rip),%rdi        # 33f0 <_IO_stdin_used+0x3f0>
    195f:	48 63 04 97          	movslq (%rdi,%rdx,4),%rax
    1963:	48 01 f8             	add    %rdi,%rax
    1966:	ff e0                	jmpq   *%rax
    1968:	b8 00 00 00 00       	mov    $0x0,%eax
    196d:	2d cf 00 00 00       	sub    $0xcf,%eax
    1972:	05 df 02 00 00       	add    $0x2df,%eax
    1977:	2d 9c 03 00 00       	sub    $0x39c,%eax
    197c:	83 e8 01             	sub    $0x1,%eax
    197f:	c1 e8 19             	shr    $0x19,%eax
    1982:	05 1b 03 00 00       	add    $0x31b,%eax
    1987:	2d 1b 03 00 00       	sub    $0x31b,%eax
    198c:	05 1b 03 00 00       	add    $0x31b,%eax
    1991:	83 f9 03             	cmp    $0x3,%ecx
    1994:	7e 54                	jle    19ea <phase_4+0xd5>
    1996:	39 c6                	cmp    %eax,%esi
    1998:	75 57                	jne    19f1 <phase_4+0xdc>
    199a:	b8 00 00 00 00       	mov    $0x0,%eax
    199f:	eb 36                	jmp    19d7 <phase_4+0xc2>
    19a1:	b8 49 02 00 00       	mov    $0x249,%eax
    19a6:	eb c5                	jmp    196d <phase_4+0x58>
    19a8:	b8 00 00 00 00       	mov    $0x0,%eax
    19ad:	eb c3                	jmp    1972 <phase_4+0x5d>
    19af:	b8 00 00 00 00       	mov    $0x0,%eax
    19b4:	eb c1                	jmp    1977 <phase_4+0x62>
    19b6:	b8 00 00 00 00       	mov    $0x0,%eax
    19bb:	eb bf                	jmp    197c <phase_4+0x67>
    19bd:	b8 00 00 00 00       	mov    $0x0,%eax
    19c2:	eb be                	jmp    1982 <phase_4+0x6d>
    19c4:	b8 00 00 00 00       	mov    $0x0,%eax
    19c9:	eb bc                	jmp    1987 <phase_4+0x72>
    19cb:	b8 00 00 00 00       	mov    $0x0,%eax
    19d0:	eb ba                	jmp    198c <phase_4+0x77>
    19d2:	b8 01 00 00 00       	mov    $0x1,%eax
    19d7:	48 83 c4 18          	add    $0x18,%rsp
    19db:	c3                   	retq   
    19dc:	b8 01 00 00 00       	mov    $0x1,%eax
    19e1:	eb f4                	jmp    19d7 <phase_4+0xc2>
    19e3:	b8 01 00 00 00       	mov    $0x1,%eax
    19e8:	eb ed                	jmp    19d7 <phase_4+0xc2>
    19ea:	b8 01 00 00 00       	mov    $0x1,%eax
    19ef:	eb e6                	jmp    19d7 <phase_4+0xc2>
    19f1:	b8 01 00 00 00       	mov    $0x1,%eax
    19f6:	eb df                	jmp    19d7 <phase_4+0xc2>

00000000000019f8 <func5>:
    19f8:	53                   	push   %rbx
    19f9:	89 d0                	mov    %edx,%eax
    19fb:	29 f0                	sub    %esi,%eax
    19fd:	89 c3                	mov    %eax,%ebx
    19ff:	c1 eb 1f             	shr    $0x1f,%ebx
    1a02:	01 c3                	add    %eax,%ebx
    1a04:	d1 fb                	sar    %ebx
    1a06:	01 f3                	add    %esi,%ebx
    1a08:	39 fb                	cmp    %edi,%ebx
    1a0a:	7f 06                	jg     1a12 <func5+0x1a>
    1a0c:	7c 10                	jl     1a1e <func5+0x26>
    1a0e:	89 d8                	mov    %ebx,%eax
    1a10:	5b                   	pop    %rbx
    1a11:	c3                   	retq   
    1a12:	8d 53 ff             	lea    -0x1(%rbx),%edx
    1a15:	e8 de ff ff ff       	callq  19f8 <func5>
    1a1a:	01 c3                	add    %eax,%ebx
    1a1c:	eb f0                	jmp    1a0e <func5+0x16>
    1a1e:	8d 73 01             	lea    0x1(%rbx),%esi
    1a21:	e8 d2 ff ff ff       	callq  19f8 <func5>
    1a26:	01 c3                	add    %eax,%ebx
    1a28:	eb e4                	jmp    1a0e <func5+0x16>

0000000000001a2a <phase_5>:
    1a2a:	48 83 ec 18          	sub    $0x18,%rsp
    1a2e:	48 8d 4c 24 08       	lea    0x8(%rsp),%rcx
    1a33:	48 8d 54 24 0c       	lea    0xc(%rsp),%rdx
    1a38:	48 8d 35 74 19 00 00 	lea    0x1974(%rip),%rsi        # 33b3 <_IO_stdin_used+0x3b3>
    1a3f:	b8 00 00 00 00       	mov    $0x0,%eax
    1a44:	e8 77 f6 ff ff       	callq  10c0 <__isoc99_sscanf@plt>
    1a49:	83 f8 02             	cmp    $0x2,%eax
    1a4c:	75 36                	jne    1a84 <phase_5+0x5a>
    1a4e:	8b 7c 24 0c          	mov    0xc(%rsp),%edi
    1a52:	85 ff                	test   %edi,%edi
    1a54:	78 38                	js     1a8e <phase_5+0x64>
    1a56:	83 ff 0e             	cmp    $0xe,%edi
    1a59:	7e 07                	jle    1a62 <phase_5+0x38>
    1a5b:	b8 01 00 00 00       	mov    $0x1,%eax
    1a60:	eb 27                	jmp    1a89 <phase_5+0x5f>
    1a62:	ba 0e 00 00 00       	mov    $0xe,%edx
    1a67:	be 00 00 00 00       	mov    $0x0,%esi
    1a6c:	e8 87 ff ff ff       	callq  19f8 <func5>
    1a71:	83 f8 0b             	cmp    $0xb,%eax
    1a74:	75 1f                	jne    1a95 <phase_5+0x6b>
    1a76:	83 7c 24 08 0b       	cmpl   $0xb,0x8(%rsp)
    1a7b:	75 1f                	jne    1a9c <phase_5+0x72>
    1a7d:	b8 00 00 00 00       	mov    $0x0,%eax
    1a82:	eb 05                	jmp    1a89 <phase_5+0x5f>
    1a84:	b8 01 00 00 00       	mov    $0x1,%eax
    1a89:	48 83 c4 18          	add    $0x18,%rsp
    1a8d:	c3                   	retq   
    1a8e:	b8 01 00 00 00       	mov    $0x1,%eax
    1a93:	eb f4                	jmp    1a89 <phase_5+0x5f>
    1a95:	b8 01 00 00 00       	mov    $0x1,%eax
    1a9a:	eb ed                	jmp    1a89 <phase_5+0x5f>
    1a9c:	b8 01 00 00 00       	mov    $0x1,%eax
    1aa1:	eb e6                	jmp    1a89 <phase_5+0x5f>

0000000000001aa3 <phase_6>:
    1aa3:	48 83 ec 78          	sub    $0x78,%rsp
    1aa7:	c7 44 24 10 05 00 00 	movl   $0x5,0x10(%rsp)
    1aae:	00 
    1aaf:	c7 44 24 14 0d 00 00 	movl   $0xd,0x14(%rsp)
    1ab6:	00 
    1ab7:	c7 44 24 18 07 00 00 	movl   $0x7,0x18(%rsp)
    1abe:	00 
    1abf:	c7 44 24 1c 11 00 00 	movl   $0x11,0x1c(%rsp)
    1ac6:	00 
    1ac7:	c7 44 24 20 03 00 00 	movl   $0x3,0x20(%rsp)
    1ace:	00 
    1acf:	c7 44 24 24 0b 00 00 	movl   $0xb,0x24(%rsp)
    1ad6:	00 
    1ad7:	c7 44 24 28 0e 00 00 	movl   $0xe,0x28(%rsp)
    1ade:	00 
    1adf:	c7 44 24 2c 09 00 00 	movl   $0x9,0x2c(%rsp)
    1ae6:	00 
    1ae7:	c7 44 24 30 12 00 00 	movl   $0x12,0x30(%rsp)
    1aee:	00 
    1aef:	c7 44 24 34 06 00 00 	movl   $0x6,0x34(%rsp)
    1af6:	00 
    1af7:	c7 44 24 38 08 00 00 	movl   $0x8,0x38(%rsp)
    1afe:	00 
    1aff:	c7 44 24 3c 0f 00 00 	movl   $0xf,0x3c(%rsp)
    1b06:	00 
    1b07:	c7 44 24 40 14 00 00 	movl   $0x14,0x40(%rsp)
    1b0e:	00 
    1b0f:	c7 44 24 44 01 00 00 	movl   $0x1,0x44(%rsp)
    1b16:	00 
    1b17:	c7 44 24 48 0a 00 00 	movl   $0xa,0x48(%rsp)
    1b1e:	00 
    1b1f:	c7 44 24 4c 02 00 00 	movl   $0x2,0x4c(%rsp)
    1b26:	00 
    1b27:	c7 44 24 50 13 00 00 	movl   $0x13,0x50(%rsp)
    1b2e:	00 
    1b2f:	c7 44 24 54 10 00 00 	movl   $0x10,0x54(%rsp)
    1b36:	00 
    1b37:	c7 44 24 58 04 00 00 	movl   $0x4,0x58(%rsp)
    1b3e:	00 
    1b3f:	c7 44 24 5c 00 00 00 	movl   $0x0,0x5c(%rsp)
    1b46:	00 
    1b47:	c7 44 24 60 0c 00 00 	movl   $0xc,0x60(%rsp)
    1b4e:	00 
    1b4f:	48 8d 4c 24 08       	lea    0x8(%rsp),%rcx
    1b54:	48 8d 54 24 0c       	lea    0xc(%rsp),%rdx
    1b59:	48 8d 35 53 18 00 00 	lea    0x1853(%rip),%rsi        # 33b3 <_IO_stdin_used+0x3b3>
    1b60:	b8 00 00 00 00       	mov    $0x0,%eax
    1b65:	e8 56 f5 ff ff       	callq  10c0 <__isoc99_sscanf@plt>
    1b6a:	83 f8 02             	cmp    $0x2,%eax
    1b6d:	75 32                	jne    1ba1 <phase_6+0xfe>
    1b6f:	b9 00 00 00 00       	mov    $0x0,%ecx
    1b74:	ba 09 00 00 00       	mov    $0x9,%edx
    1b79:	8b 44 24 0c          	mov    0xc(%rsp),%eax
    1b7d:	85 c0                	test   %eax,%eax
    1b7f:	7e 13                	jle    1b94 <phase_6+0xf1>
    1b81:	48 63 d2             	movslq %edx,%rdx
    1b84:	8b 54 94 10          	mov    0x10(%rsp,%rdx,4),%edx
    1b88:	8d 0c 91             	lea    (%rcx,%rdx,4),%ecx
    1b8b:	83 e8 01             	sub    $0x1,%eax
    1b8e:	89 44 24 0c          	mov    %eax,0xc(%rsp)
    1b92:	eb e5                	jmp    1b79 <phase_6+0xd6>
    1b94:	39 4c 24 08          	cmp    %ecx,0x8(%rsp)
    1b98:	75 11                	jne    1bab <phase_6+0x108>
    1b9a:	b8 00 00 00 00       	mov    $0x0,%eax
    1b9f:	eb 05                	jmp    1ba6 <phase_6+0x103>
    1ba1:	b8 01 00 00 00       	mov    $0x1,%eax
    1ba6:	48 83 c4 78          	add    $0x78,%rsp
    1baa:	c3                   	retq   
    1bab:	b8 01 00 00 00       	mov    $0x1,%eax
    1bb0:	eb f4                	jmp    1ba6 <phase_6+0x103>

0000000000001bb2 <phase_7>:
    1bb2:	48 83 ec 58          	sub    $0x58,%rsp
    1bb6:	48 8d 74 24 30       	lea    0x30(%rsp),%rsi
    1bbb:	e8 cf fb ff ff       	callq  178f <read_six_numbers>
    1bc0:	83 f8 06             	cmp    $0x6,%eax
    1bc3:	0f 85 e0 00 00 00    	jne    1ca9 <phase_7+0xf7>
    1bc9:	be 00 00 00 00       	mov    $0x0,%esi
    1bce:	83 fe 05             	cmp    $0x5,%esi
    1bd1:	7f 35                	jg     1c08 <phase_7+0x56>
    1bd3:	48 63 c6             	movslq %esi,%rax
    1bd6:	8b 4c 84 30          	mov    0x30(%rsp,%rax,4),%ecx
    1bda:	8d 41 ff             	lea    -0x1(%rcx),%eax
    1bdd:	83 f8 05             	cmp    $0x5,%eax
    1be0:	0f 87 cd 00 00 00    	ja     1cb3 <phase_7+0x101>
    1be6:	83 c6 01             	add    $0x1,%esi
    1be9:	89 f0                	mov    %esi,%eax
    1beb:	eb 03                	jmp    1bf0 <phase_7+0x3e>
    1bed:	83 c0 01             	add    $0x1,%eax
    1bf0:	83 f8 05             	cmp    $0x5,%eax
    1bf3:	7f d9                	jg     1bce <phase_7+0x1c>
    1bf5:	48 63 d0             	movslq %eax,%rdx
    1bf8:	3b 4c 94 30          	cmp    0x30(%rsp,%rdx,4),%ecx
    1bfc:	75 ef                	jne    1bed <phase_7+0x3b>
    1bfe:	b8 01 00 00 00       	mov    $0x1,%eax
    1c03:	e9 a6 00 00 00       	jmpq   1cae <phase_7+0xfc>
    1c08:	be 00 00 00 00       	mov    $0x0,%esi
    1c0d:	eb 17                	jmp    1c26 <phase_7+0x74>
    1c0f:	48 8b 52 08          	mov    0x8(%rdx),%rdx
    1c13:	83 c0 01             	add    $0x1,%eax
    1c16:	48 63 ce             	movslq %esi,%rcx
    1c19:	39 44 8c 30          	cmp    %eax,0x30(%rsp,%rcx,4)
    1c1d:	7f f0                	jg     1c0f <phase_7+0x5d>
    1c1f:	48 89 14 cc          	mov    %rdx,(%rsp,%rcx,8)
    1c23:	83 c6 01             	add    $0x1,%esi
    1c26:	83 fe 05             	cmp    $0x5,%esi
    1c29:	7f 0e                	jg     1c39 <phase_7+0x87>
    1c2b:	b8 01 00 00 00       	mov    $0x1,%eax
    1c30:	48 8d 15 59 35 00 00 	lea    0x3559(%rip),%rdx        # 5190 <node1>
    1c37:	eb dd                	jmp    1c16 <phase_7+0x64>
    1c39:	48 8b 34 24          	mov    (%rsp),%rsi
    1c3d:	48 89 f1             	mov    %rsi,%rcx
    1c40:	b8 01 00 00 00       	mov    $0x1,%eax
    1c45:	eb 11                	jmp    1c58 <phase_7+0xa6>
    1c47:	48 63 d0             	movslq %eax,%rdx
    1c4a:	48 8b 14 d4          	mov    (%rsp,%rdx,8),%rdx
    1c4e:	48 89 51 08          	mov    %rdx,0x8(%rcx)
    1c52:	83 c0 01             	add    $0x1,%eax
    1c55:	48 89 d1             	mov    %rdx,%rcx
    1c58:	83 f8 05             	cmp    $0x5,%eax
    1c5b:	7e ea                	jle    1c47 <phase_7+0x95>
    1c5d:	48 c7 41 08 00 00 00 	movq   $0x0,0x8(%rcx)
    1c64:	00 
    1c65:	48 89 f0             	mov    %rsi,%rax
    1c68:	ba 00 00 00 00       	mov    $0x0,%edx
    1c6d:	83 fa 03             	cmp    $0x3,%edx
    1c70:	7f 13                	jg     1c85 <phase_7+0xd3>
    1c72:	8b 38                	mov    (%rax),%edi
    1c74:	48 8b 40 08          	mov    0x8(%rax),%rax
    1c78:	48 8b 48 08          	mov    0x8(%rax),%rcx
    1c7c:	3b 39                	cmp    (%rcx),%edi
    1c7e:	7c 3a                	jl     1cba <phase_7+0x108>
    1c80:	83 c2 01             	add    $0x1,%edx
    1c83:	eb e8                	jmp    1c6d <phase_7+0xbb>
    1c85:	b8 00 00 00 00       	mov    $0x0,%eax
    1c8a:	83 f8 02             	cmp    $0x2,%eax
    1c8d:	7f 13                	jg     1ca2 <phase_7+0xf0>
    1c8f:	48 8b 56 08          	mov    0x8(%rsi),%rdx
    1c93:	8b 3a                	mov    (%rdx),%edi
    1c95:	39 3e                	cmp    %edi,(%rsi)
    1c97:	7f 28                	jg     1cc1 <phase_7+0x10f>
    1c99:	48 8b 72 08          	mov    0x8(%rdx),%rsi
    1c9d:	83 c0 01             	add    $0x1,%eax
    1ca0:	eb e8                	jmp    1c8a <phase_7+0xd8>
    1ca2:	b8 00 00 00 00       	mov    $0x0,%eax
    1ca7:	eb 05                	jmp    1cae <phase_7+0xfc>
    1ca9:	b8 01 00 00 00       	mov    $0x1,%eax
    1cae:	48 83 c4 58          	add    $0x58,%rsp
    1cb2:	c3                   	retq   
    1cb3:	b8 01 00 00 00       	mov    $0x1,%eax
    1cb8:	eb f4                	jmp    1cae <phase_7+0xfc>
    1cba:	b8 01 00 00 00       	mov    $0x1,%eax
    1cbf:	eb ed                	jmp    1cae <phase_7+0xfc>
    1cc1:	b8 01 00 00 00       	mov    $0x1,%eax
    1cc6:	eb e6                	jmp    1cae <phase_7+0xfc>

0000000000001cc8 <append_to_string>:
    1cc8:	41 54                	push   %r12
    1cca:	55                   	push   %rbp
    1ccb:	53                   	push   %rbx
    1ccc:	49 89 fc             	mov    %rdi,%r12
    1ccf:	48 89 cb             	mov    %rcx,%rbx
    1cd2:	48 0f af f2          	imul   %rdx,%rsi
    1cd6:	48 89 f5             	mov    %rsi,%rbp
    1cd9:	48 03 71 08          	add    0x8(%rcx),%rsi
    1cdd:	48 8b 39             	mov    (%rcx),%rdi
    1ce0:	48 83 c6 01          	add    $0x1,%rsi
    1ce4:	e8 f7 f4 ff ff       	callq  11e0 <realloc@plt>
    1ce9:	48 85 c0             	test   %rax,%rax
    1cec:	74 2e                	je     1d1c <append_to_string+0x54>
    1cee:	48 89 03             	mov    %rax,(%rbx)
    1cf1:	48 03 43 08          	add    0x8(%rbx),%rax
    1cf5:	48 89 c7             	mov    %rax,%rdi
    1cf8:	48 89 ea             	mov    %rbp,%rdx
    1cfb:	4c 89 e6             	mov    %r12,%rsi
    1cfe:	e8 9d f3 ff ff       	callq  10a0 <memcpy@plt>
    1d03:	48 89 e8             	mov    %rbp,%rax
    1d06:	48 03 43 08          	add    0x8(%rbx),%rax
    1d0a:	48 89 43 08          	mov    %rax,0x8(%rbx)
    1d0e:	48 03 03             	add    (%rbx),%rax
    1d11:	c6 00 00             	movb   $0x0,(%rax)
    1d14:	48 89 e8             	mov    %rbp,%rax
    1d17:	5b                   	pop    %rbx
    1d18:	5d                   	pop    %rbp
    1d19:	41 5c                	pop    %r12
    1d1b:	c3                   	retq   
    1d1c:	bd 00 00 00 00       	mov    $0x0,%ebp
    1d21:	eb f1                	jmp    1d14 <append_to_string+0x4c>

0000000000001d23 <init_driver>:
    1d23:	41 56                	push   %r14
    1d25:	41 55                	push   %r13
    1d27:	41 54                	push   %r12
    1d29:	55                   	push   %rbp
    1d2a:	53                   	push   %rbx
    1d2b:	48 81 ec 00 20 00 00 	sub    $0x2000,%rsp
    1d32:	49 89 fc             	mov    %rdi,%r12
    1d35:	49 89 f5             	mov    %rsi,%r13
    1d38:	48 89 d5             	mov    %rdx,%rbp
    1d3b:	bf 03 00 00 00       	mov    $0x3,%edi
    1d40:	e8 1b f3 ff ff       	callq  1060 <curl_global_init@plt>
    1d45:	e8 16 f4 ff ff       	callq  1160 <curl_easy_init@plt>
    1d4a:	48 85 c0             	test   %rax,%rax
    1d4d:	0f 84 9a 00 00 00    	je     1ded <init_driver+0xca>
    1d53:	48 89 c3             	mov    %rax,%rbx
    1d56:	49 89 e6             	mov    %rsp,%r14
    1d59:	4d 89 e9             	mov    %r13,%r9
    1d5c:	4d 89 e0             	mov    %r12,%r8
    1d5f:	b9 bb 01 00 00       	mov    $0x1bb,%ecx
    1d64:	48 8d 15 a5 16 00 00 	lea    0x16a5(%rip),%rdx        # 3410 <_IO_stdin_used+0x410>
    1d6b:	48 8d 35 be 16 00 00 	lea    0x16be(%rip),%rsi        # 3430 <_IO_stdin_used+0x430>
    1d72:	4c 89 f7             	mov    %r14,%rdi
    1d75:	b8 00 00 00 00       	mov    $0x0,%eax
    1d7a:	e8 c1 f2 ff ff       	callq  1040 <sprintf@plt>
    1d7f:	4c 89 f2             	mov    %r14,%rdx
    1d82:	be 12 27 00 00       	mov    $0x2712,%esi
    1d87:	48 89 df             	mov    %rbx,%rdi
    1d8a:	b8 00 00 00 00       	mov    $0x0,%eax
    1d8f:	e8 6c f3 ff ff       	callq  1100 <curl_easy_setopt@plt>
    1d94:	ba 01 00 00 00       	mov    $0x1,%edx
    1d99:	be 2c 00 00 00       	mov    $0x2c,%esi
    1d9e:	48 89 df             	mov    %rbx,%rdi
    1da1:	b8 00 00 00 00       	mov    $0x0,%eax
    1da6:	e8 55 f3 ff ff       	callq  1100 <curl_easy_setopt@plt>
    1dab:	48 89 df             	mov    %rbx,%rdi
    1dae:	e8 bd f3 ff ff       	callq  1170 <curl_easy_perform@plt>
    1db3:	85 c0                	test   %eax,%eax
    1db5:	74 67                	je     1e1e <init_driver+0xfb>
    1db7:	89 c7                	mov    %eax,%edi
    1db9:	e8 d2 f3 ff ff       	callq  1190 <curl_easy_strerror@plt>
    1dbe:	48 89 c6             	mov    %rax,%rsi
    1dc1:	48 89 ef             	mov    %rbp,%rdi
    1dc4:	e8 e7 f2 ff ff       	callq  10b0 <strcpy@plt>
    1dc9:	bd 01 00 00 00       	mov    $0x1,%ebp
    1dce:	48 89 df             	mov    %rbx,%rdi
    1dd1:	e8 6a f3 ff ff       	callq  1140 <curl_easy_cleanup@plt>
    1dd6:	e8 95 f2 ff ff       	callq  1070 <curl_global_cleanup@plt>
    1ddb:	89 e8                	mov    %ebp,%eax
    1ddd:	48 81 c4 00 20 00 00 	add    $0x2000,%rsp
    1de4:	5b                   	pop    %rbx
    1de5:	5d                   	pop    %rbp
    1de6:	41 5c                	pop    %r12
    1de8:	41 5d                	pop    %r13
    1dea:	41 5e                	pop    %r14
    1dec:	c3                   	retq   
    1ded:	48 b8 43 61 6e 6e 6f 	movabs $0x6920746f6e6e6143,%rax
    1df4:	74 20 69 
    1df7:	48 ba 6e 69 74 20 63 	movabs $0x6e6e6f632074696e,%rdx
    1dfe:	6f 6e 6e 
    1e01:	48 89 45 00          	mov    %rax,0x0(%rbp)
    1e05:	48 89 55 08          	mov    %rdx,0x8(%rbp)
    1e09:	48 b8 65 63 74 69 6f 	movabs $0x2e6e6f69746365,%rax
    1e10:	6e 2e 00 
    1e13:	48 89 45 10          	mov    %rax,0x10(%rbp)
    1e17:	bd 01 00 00 00       	mov    $0x1,%ebp
    1e1c:	eb b8                	jmp    1dd6 <init_driver+0xb3>
    1e1e:	66 c7 45 00 4f 4b    	movw   $0x4b4f,0x0(%rbp)
    1e24:	c6 45 02 00          	movb   $0x0,0x2(%rbp)
    1e28:	bd 00 00 00 00       	mov    $0x0,%ebp
    1e2d:	eb 9f                	jmp    1dce <init_driver+0xab>

0000000000001e2f <driver_post>:
    1e2f:	41 57                	push   %r15
    1e31:	41 56                	push   %r14
    1e33:	41 55                	push   %r13
    1e35:	41 54                	push   %r12
    1e37:	55                   	push   %rbp
    1e38:	53                   	push   %rbx
    1e39:	48 81 ec 38 20 00 00 	sub    $0x2038,%rsp
    1e40:	48 89 3c 24          	mov    %rdi,(%rsp)
    1e44:	48 89 74 24 08       	mov    %rsi,0x8(%rsp)
    1e49:	41 89 d6             	mov    %edx,%r14d
    1e4c:	41 89 cd             	mov    %ecx,%r13d
    1e4f:	4d 89 c4             	mov    %r8,%r12
    1e52:	4c 89 cd             	mov    %r9,%rbp
    1e55:	bf 03 00 00 00       	mov    $0x3,%edi
    1e5a:	e8 01 f2 ff ff       	callq  1060 <curl_global_init@plt>
    1e5f:	e8 fc f2 ff ff       	callq  1160 <curl_easy_init@plt>
    1e64:	48 85 c0             	test   %rax,%rax
    1e67:	0f 84 49 01 00 00    	je     1fb6 <driver_post+0x187>
    1e6d:	48 89 c3             	mov    %rax,%rbx
    1e70:	ba 00 00 00 00       	mov    $0x0,%edx
    1e75:	4c 89 e6             	mov    %r12,%rsi
    1e78:	48 89 c7             	mov    %rax,%rdi
    1e7b:	e8 80 f3 ff ff       	callq  1200 <curl_easy_escape@plt>
    1e80:	49 89 c4             	mov    %rax,%r12
    1e83:	48 85 c0             	test   %rax,%rax
    1e86:	0f 84 5b 01 00 00    	je     1fe7 <driver_post+0x1b8>
    1e8c:	4c 8d 7c 24 30       	lea    0x30(%rsp),%r15
    1e91:	48 83 ec 08          	sub    $0x8,%rsp
    1e95:	50                   	push   %rax
    1e96:	41 56                	push   %r14
    1e98:	41 55                	push   %r13
    1e9a:	4c 8b 4c 24 28       	mov    0x28(%rsp),%r9
    1e9f:	4c 8b 44 24 20       	mov    0x20(%rsp),%r8
    1ea4:	b9 bb 01 00 00       	mov    $0x1bb,%ecx
    1ea9:	48 8d 15 60 15 00 00 	lea    0x1560(%rip),%rdx        # 3410 <_IO_stdin_used+0x410>
    1eb0:	48 8d 35 a1 15 00 00 	lea    0x15a1(%rip),%rsi        # 3458 <_IO_stdin_used+0x458>
    1eb7:	4c 89 ff             	mov    %r15,%rdi
    1eba:	b8 00 00 00 00       	mov    $0x0,%eax
    1ebf:	e8 7c f1 ff ff       	callq  1040 <sprintf@plt>
    1ec4:	48 83 c4 20          	add    $0x20,%rsp
    1ec8:	be 01 00 00 00       	mov    $0x1,%esi
    1ecd:	bf 01 00 00 00       	mov    $0x1,%edi
    1ed2:	e8 b9 f1 ff ff       	callq  1090 <calloc@plt>
    1ed7:	48 89 44 24 20       	mov    %rax,0x20(%rsp)
    1edc:	48 c7 44 24 28 00 00 	movq   $0x0,0x28(%rsp)
    1ee3:	00 00 
    1ee5:	4c 89 fa             	mov    %r15,%rdx
    1ee8:	be 12 27 00 00       	mov    $0x2712,%esi
    1eed:	48 89 df             	mov    %rbx,%rdi
    1ef0:	b8 00 00 00 00       	mov    $0x0,%eax
    1ef5:	e8 06 f2 ff ff       	callq  1100 <curl_easy_setopt@plt>
    1efa:	48 8d 15 0d 11 00 00 	lea    0x110d(%rip),%rdx        # 300e <_IO_stdin_used+0xe>
    1f01:	be 1f 27 00 00       	mov    $0x271f,%esi
    1f06:	48 89 df             	mov    %rbx,%rdi
    1f09:	b8 00 00 00 00       	mov    $0x0,%eax
    1f0e:	e8 ed f1 ff ff       	callq  1100 <curl_easy_setopt@plt>
    1f13:	48 8d 15 ae fd ff ff 	lea    -0x252(%rip),%rdx        # 1cc8 <append_to_string>
    1f1a:	be 2b 4e 00 00       	mov    $0x4e2b,%esi
    1f1f:	48 89 df             	mov    %rbx,%rdi
    1f22:	b8 00 00 00 00       	mov    $0x0,%eax
    1f27:	e8 d4 f1 ff ff       	callq  1100 <curl_easy_setopt@plt>
    1f2c:	48 8d 54 24 20       	lea    0x20(%rsp),%rdx
    1f31:	be 11 27 00 00       	mov    $0x2711,%esi
    1f36:	48 89 df             	mov    %rbx,%rdi
    1f39:	b8 00 00 00 00       	mov    $0x0,%eax
    1f3e:	e8 bd f1 ff ff       	callq  1100 <curl_easy_setopt@plt>
    1f43:	48 8d 15 d4 14 00 00 	lea    0x14d4(%rip),%rdx        # 341e <_IO_stdin_used+0x41e>
    1f4a:	be 22 27 00 00       	mov    $0x2722,%esi
    1f4f:	48 89 df             	mov    %rbx,%rdi
    1f52:	b8 00 00 00 00       	mov    $0x0,%eax
    1f57:	e8 a4 f1 ff ff       	callq  1100 <curl_easy_setopt@plt>
    1f5c:	48 89 df             	mov    %rbx,%rdi
    1f5f:	e8 0c f2 ff ff       	callq  1170 <curl_easy_perform@plt>
    1f64:	85 c0                	test   %eax,%eax
    1f66:	0f 84 b6 00 00 00    	je     2022 <driver_post+0x1f3>
    1f6c:	89 c7                	mov    %eax,%edi
    1f6e:	e8 1d f2 ff ff       	callq  1190 <curl_easy_strerror@plt>
    1f73:	48 89 c6             	mov    %rax,%rsi
    1f76:	48 89 ef             	mov    %rbp,%rdi
    1f79:	e8 32 f1 ff ff       	callq  10b0 <strcpy@plt>
    1f7e:	bd 01 00 00 00       	mov    $0x1,%ebp
    1f83:	48 8b 7c 24 20       	mov    0x20(%rsp),%rdi
    1f88:	e8 93 f1 ff ff       	callq  1120 <free@plt>
    1f8d:	4c 89 e7             	mov    %r12,%rdi
    1f90:	e8 bb f0 ff ff       	callq  1050 <curl_free@plt>
    1f95:	48 89 df             	mov    %rbx,%rdi
    1f98:	e8 a3 f1 ff ff       	callq  1140 <curl_easy_cleanup@plt>
    1f9d:	e8 ce f0 ff ff       	callq  1070 <curl_global_cleanup@plt>
    1fa2:	89 e8                	mov    %ebp,%eax
    1fa4:	48 81 c4 38 20 00 00 	add    $0x2038,%rsp
    1fab:	5b                   	pop    %rbx
    1fac:	5d                   	pop    %rbp
    1fad:	41 5c                	pop    %r12
    1faf:	41 5d                	pop    %r13
    1fb1:	41 5e                	pop    %r14
    1fb3:	41 5f                	pop    %r15
    1fb5:	c3                   	retq   
    1fb6:	48 b8 43 61 6e 6e 6f 	movabs $0x6920746f6e6e6143,%rax
    1fbd:	74 20 69 
    1fc0:	48 ba 6e 69 74 20 63 	movabs $0x6e6e6f632074696e,%rdx
    1fc7:	6f 6e 6e 
    1fca:	48 89 45 00          	mov    %rax,0x0(%rbp)
    1fce:	48 89 55 08          	mov    %rdx,0x8(%rbp)
    1fd2:	48 b8 65 63 74 69 6f 	movabs $0x2e6e6f69746365,%rax
    1fd9:	6e 2e 00 
    1fdc:	48 89 45 10          	mov    %rax,0x10(%rbp)
    1fe0:	bd 01 00 00 00       	mov    $0x1,%ebp
    1fe5:	eb b6                	jmp    1f9d <driver_post+0x16e>
    1fe7:	48 b8 43 61 6e 6e 6f 	movabs $0x5520746f6e6e6143,%rax
    1fee:	74 20 55 
    1ff1:	48 ba 52 4c 2d 65 6e 	movabs $0x646f636e652d4c52,%rdx
    1ff8:	63 6f 64 
    1ffb:	48 89 45 00          	mov    %rax,0x0(%rbp)
    1fff:	48 89 55 08          	mov    %rdx,0x8(%rbp)
    2003:	48 b8 65 20 73 6f 6c 	movabs $0x6974756c6f732065,%rax
    200a:	75 74 69 
    200d:	48 89 45 10          	mov    %rax,0x10(%rbp)
    2011:	c7 45 18 6f 6e 2e 00 	movl   $0x2e6e6f,0x18(%rbp)
    2018:	bd 01 00 00 00       	mov    $0x1,%ebp
    201d:	e9 73 ff ff ff       	jmpq   1f95 <driver_post+0x166>
    2022:	48 8d 54 24 18       	lea    0x18(%rsp),%rdx
    2027:	be 02 00 20 00       	mov    $0x200002,%esi
    202c:	48 89 df             	mov    %rbx,%rdi
    202f:	b8 00 00 00 00       	mov    $0x0,%eax
    2034:	e8 47 f0 ff ff       	callq  1080 <curl_easy_getinfo@plt>
    2039:	48 81 7c 24 18 c8 00 	cmpq   $0xc8,0x18(%rsp)
    2040:	00 00 
    2042:	74 23                	je     2067 <driver_post+0x238>
    2044:	48 b8 53 65 72 76 65 	movabs $0x6520726576726553,%rax
    204b:	72 20 65 
    204e:	48 89 45 00          	mov    %rax,0x0(%rbp)
    2052:	c7 45 08 72 72 6f 72 	movl   $0x726f7272,0x8(%rbp)
    2059:	c6 45 0c 00          	movb   $0x0,0xc(%rbp)
    205d:	bd 01 00 00 00       	mov    $0x1,%ebp
    2062:	e9 1c ff ff ff       	jmpq   1f83 <driver_post+0x154>
    2067:	48 8b 74 24 20       	mov    0x20(%rsp),%rsi
    206c:	48 89 ef             	mov    %rbp,%rdi
    206f:	e8 3c f0 ff ff       	callq  10b0 <strcpy@plt>
    2074:	b9 03 00 00 00       	mov    $0x3,%ecx
    2079:	48 8d 3d aa 13 00 00 	lea    0x13aa(%rip),%rdi        # 342a <_IO_stdin_used+0x42a>
    2080:	48 89 ee             	mov    %rbp,%rsi
    2083:	f3 a6                	repz cmpsb %es:(%rdi),%ds:(%rsi)
    2085:	40 0f 97 c5          	seta   %bpl
    2089:	40 80 dd 00          	sbb    $0x0,%bpl
    208d:	40 0f be ed          	movsbl %bpl,%ebp
    2091:	85 ed                	test   %ebp,%ebp
    2093:	0f 84 ea fe ff ff    	je     1f83 <driver_post+0x154>
    2099:	bd 01 00 00 00       	mov    $0x1,%ebp
    209e:	e9 e0 fe ff ff       	jmpq   1f83 <driver_post+0x154>
    20a3:	66 2e 0f 1f 84 00 00 	nopw   %cs:0x0(%rax,%rax,1)
    20aa:	00 00 00 
    20ad:	0f 1f 00             	nopl   (%rax)

00000000000020b0 <__libc_csu_init>:
    20b0:	41 57                	push   %r15
    20b2:	4c 8d 3d 1f 2d 00 00 	lea    0x2d1f(%rip),%r15        # 4dd8 <__frame_dummy_init_array_entry>
    20b9:	41 56                	push   %r14
    20bb:	49 89 d6             	mov    %rdx,%r14
    20be:	41 55                	push   %r13
    20c0:	49 89 f5             	mov    %rsi,%r13
    20c3:	41 54                	push   %r12
    20c5:	41 89 fc             	mov    %edi,%r12d
    20c8:	55                   	push   %rbp
    20c9:	48 8d 2d 10 2d 00 00 	lea    0x2d10(%rip),%rbp        # 4de0 <__init_array_end>
    20d0:	53                   	push   %rbx
    20d1:	4c 29 fd             	sub    %r15,%rbp
    20d4:	48 83 ec 08          	sub    $0x8,%rsp
    20d8:	e8 23 ef ff ff       	callq  1000 <_init>
    20dd:	48 c1 fd 03          	sar    $0x3,%rbp
    20e1:	74 1b                	je     20fe <__libc_csu_init+0x4e>
    20e3:	31 db                	xor    %ebx,%ebx
    20e5:	0f 1f 00             	nopl   (%rax)
    20e8:	4c 89 f2             	mov    %r14,%rdx
    20eb:	4c 89 ee             	mov    %r13,%rsi
    20ee:	44 89 e7             	mov    %r12d,%edi
    20f1:	41 ff 14 df          	callq  *(%r15,%rbx,8)
    20f5:	48 83 c3 01          	add    $0x1,%rbx
    20f9:	48 39 dd             	cmp    %rbx,%rbp
    20fc:	75 ea                	jne    20e8 <__libc_csu_init+0x38>
    20fe:	48 83 c4 08          	add    $0x8,%rsp
    2102:	5b                   	pop    %rbx
    2103:	5d                   	pop    %rbp
    2104:	41 5c                	pop    %r12
    2106:	41 5d                	pop    %r13
    2108:	41 5e                	pop    %r14
    210a:	41 5f                	pop    %r15
    210c:	c3                   	retq   
    210d:	0f 1f 00             	nopl   (%rax)

0000000000002110 <__libc_csu_fini>:
    2110:	c3                   	retq   

Disassembly of section .fini:

0000000000002114 <_fini>:
    2114:	48 83 ec 08          	sub    $0x8,%rsp
    2118:	48 83 c4 08          	add    $0x8,%rsp
    211c:	c3                   	retq   

bomb:     file format elf64-x86-64


Disassembly of section .init:

0000000000001000 <_init>:
    1000:	48 83 ec 08          	sub    $0x8,%rsp
    1004:	48 8b 05 e5 3f 00 00 	mov    0x3fe5(%rip),%rax        # 4ff0 <__gmon_start__>
    100b:	48 85 c0             	test   %rax,%rax
    100e:	74 02                	je     1012 <_init+0x12>
    1010:	ff d0                	callq  *%rax
    1012:	48 83 c4 08          	add    $0x8,%rsp
    1016:	c3                   	retq   

Disassembly of section .plt:

0000000000001020 <.plt>:
    1020:	ff 35 e2 3f 00 00    	pushq  0x3fe2(%rip)        # 5008 <_GLOBAL_OFFSET_TABLE_+0x8>
    1026:	ff 25 e4 3f 00 00    	jmpq   *0x3fe4(%rip)        # 5010 <_GLOBAL_OFFSET_TABLE_+0x10>
    102c:	0f 1f 40 00          	nopl   0x0(%rax)

0000000000001030 <printf@plt>:
    1030:	ff 25 e2 3f 00 00    	jmpq   *0x3fe2(%rip)        # 5018 <printf@GLIBC_2.2.5>
    1036:	68 00 00 00 00       	pushq  $0x0
    103b:	e9 e0 ff ff ff       	jmpq   1020 <.plt>

0000000000001040 <sprintf@plt>:
    1040:	ff 25 da 3f 00 00    	jmpq   *0x3fda(%rip)        # 5020 <sprintf@GLIBC_2.2.5>
    1046:	68 01 00 00 00       	pushq  $0x1
    104b:	e9 d0 ff ff ff       	jmpq   1020 <.plt>

0000000000001050 <curl_free@plt>:
    1050:	ff 25 d2 3f 00 00    	jmpq   *0x3fd2(%rip)        # 5028 <curl_free@CURL_OPENSSL_4>
    1056:	68 02 00 00 00       	pushq  $0x2
    105b:	e9 c0 ff ff ff       	jmpq   1020 <.plt>

0000000000001060 <curl_global_init@plt>:
    1060:	ff 25 ca 3f 00 00    	jmpq   *0x3fca(%rip)        # 5030 <curl_global_init@CURL_OPENSSL_4>
    1066:	68 03 00 00 00       	pushq  $0x3
    106b:	e9 b0 ff ff ff       	jmpq   1020 <.plt>

0000000000001070 <curl_global_cleanup@plt>:
    1070:	ff 25 c2 3f 00 00    	jmpq   *0x3fc2(%rip)        # 5038 <curl_global_cleanup@CURL_OPENSSL_4>
    1076:	68 04 00 00 00       	pushq  $0x4
    107b:	e9 a0 ff ff ff       	jmpq   1020 <.plt>

0000000000001080 <curl_easy_getinfo@plt>:
    1080:	ff 25 ba 3f 00 00    	jmpq   *0x3fba(%rip)        # 5040 <curl_easy_getinfo@CURL_OPENSSL_4>
    1086:	68 05 00 00 00       	pushq  $0x5
    108b:	e9 90 ff ff ff       	jmpq   1020 <.plt>

0000000000001090 <calloc@plt>:
    1090:	ff 25 b2 3f 00 00    	jmpq   *0x3fb2(%rip)        # 5048 <calloc@GLIBC_2.2.5>
    1096:	68 06 00 00 00       	pushq  $0x6
    109b:	e9 80 ff ff ff       	jmpq   1020 <.plt>

00000000000010a0 <memcpy@plt>:
    10a0:	ff 25 aa 3f 00 00    	jmpq   *0x3faa(%rip)        # 5050 <memcpy@GLIBC_2.14>
    10a6:	68 07 00 00 00       	pushq  $0x7
    10ab:	e9 70 ff ff ff       	jmpq   1020 <.plt>

00000000000010b0 <strcpy@plt>:
    10b0:	ff 25 a2 3f 00 00    	jmpq   *0x3fa2(%rip)        # 5058 <strcpy@GLIBC_2.2.5>
    10b6:	68 08 00 00 00       	pushq  $0x8
    10bb:	e9 60 ff ff ff       	jmpq   1020 <.plt>

00000000000010c0 <__isoc99_sscanf@plt>:
    10c0:	ff 25 9a 3f 00 00    	jmpq   *0x3f9a(%rip)        # 5060 <__isoc99_sscanf@GLIBC_2.7>
    10c6:	68 09 00 00 00       	pushq  $0x9
    10cb:	e9 50 ff ff ff       	jmpq   1020 <.plt>

00000000000010d0 <fclose@plt>:
    10d0:	ff 25 92 3f 00 00    	jmpq   *0x3f92(%rip)        # 5068 <fclose@GLIBC_2.2.5>
    10d6:	68 0a 00 00 00       	pushq  $0xa
    10db:	e9 40 ff ff ff       	jmpq   1020 <.plt>

00000000000010e0 <__ctype_b_loc@plt>:
    10e0:	ff 25 8a 3f 00 00    	jmpq   *0x3f8a(%rip)        # 5070 <__ctype_b_loc@GLIBC_2.3>
    10e6:	68 0b 00 00 00       	pushq  $0xb
    10eb:	e9 30 ff ff ff       	jmpq   1020 <.plt>

00000000000010f0 <fputs@plt>:
    10f0:	ff 25 82 3f 00 00    	jmpq   *0x3f82(%rip)        # 5078 <fputs@GLIBC_2.2.5>
    10f6:	68 0c 00 00 00       	pushq  $0xc
    10fb:	e9 20 ff ff ff       	jmpq   1020 <.plt>

0000000000001100 <curl_easy_setopt@plt>:
    1100:	ff 25 7a 3f 00 00    	jmpq   *0x3f7a(%rip)        # 5080 <curl_easy_setopt@CURL_OPENSSL_4>
    1106:	68 0d 00 00 00       	pushq  $0xd
    110b:	e9 10 ff ff ff       	jmpq   1020 <.plt>

0000000000001110 <fopen@plt>:
    1110:	ff 25 72 3f 00 00    	jmpq   *0x3f72(%rip)        # 5088 <fopen@GLIBC_2.2.5>
    1116:	68 0e 00 00 00       	pushq  $0xe
    111b:	e9 00 ff ff ff       	jmpq   1020 <.plt>

0000000000001120 <free@plt>:
    1120:	ff 25 6a 3f 00 00    	jmpq   *0x3f6a(%rip)        # 5090 <free@GLIBC_2.2.5>
    1126:	68 0f 00 00 00       	pushq  $0xf
    112b:	e9 f0 fe ff ff       	jmpq   1020 <.plt>

0000000000001130 <exit@plt>:
    1130:	ff 25 62 3f 00 00    	jmpq   *0x3f62(%rip)        # 5098 <exit@GLIBC_2.2.5>
    1136:	68 10 00 00 00       	pushq  $0x10
    113b:	e9 e0 fe ff ff       	jmpq   1020 <.plt>

0000000000001140 <curl_easy_cleanup@plt>:
    1140:	ff 25 5a 3f 00 00    	jmpq   *0x3f5a(%rip)        # 50a0 <curl_easy_cleanup@CURL_OPENSSL_4>
    1146:	68 11 00 00 00       	pushq  $0x11
    114b:	e9 d0 fe ff ff       	jmpq   1020 <.plt>

0000000000001150 <fputc@plt>:
    1150:	ff 25 52 3f 00 00    	jmpq   *0x3f52(%rip)        # 50a8 <fputc@GLIBC_2.2.5>
    1156:	68 12 00 00 00       	pushq  $0x12
    115b:	e9 c0 fe ff ff       	jmpq   1020 <.plt>

0000000000001160 <curl_easy_init@plt>:
    1160:	ff 25 4a 3f 00 00    	jmpq   *0x3f4a(%rip)        # 50b0 <curl_easy_init@CURL_OPENSSL_4>
    1166:	68 13 00 00 00       	pushq  $0x13
    116b:	e9 b0 fe ff ff       	jmpq   1020 <.plt>

0000000000001170 <curl_easy_perform@plt>:
    1170:	ff 25 42 3f 00 00    	jmpq   *0x3f42(%rip)        # 50b8 <curl_easy_perform@CURL_OPENSSL_4>
    1176:	68 14 00 00 00       	pushq  $0x14
    117b:	e9 a0 fe ff ff       	jmpq   1020 <.plt>

0000000000001180 <strtol@plt>:
    1180:	ff 25 3a 3f 00 00    	jmpq   *0x3f3a(%rip)        # 50c0 <strtol@GLIBC_2.2.5>
    1186:	68 15 00 00 00       	pushq  $0x15
    118b:	e9 90 fe ff ff       	jmpq   1020 <.plt>

0000000000001190 <curl_easy_strerror@plt>:
    1190:	ff 25 32 3f 00 00    	jmpq   *0x3f32(%rip)        # 50c8 <curl_easy_strerror@CURL_OPENSSL_4>
    1196:	68 16 00 00 00       	pushq  $0x16
    119b:	e9 80 fe ff ff       	jmpq   1020 <.plt>

00000000000011a0 <puts@plt>:
    11a0:	ff 25 2a 3f 00 00    	jmpq   *0x3f2a(%rip)        # 50d0 <puts@GLIBC_2.2.5>
    11a6:	68 17 00 00 00       	pushq  $0x17
    11ab:	e9 70 fe ff ff       	jmpq   1020 <.plt>

00000000000011b0 <fgets@plt>:
    11b0:	ff 25 22 3f 00 00    	jmpq   *0x3f22(%rip)        # 50d8 <fgets@GLIBC_2.2.5>
    11b6:	68 18 00 00 00       	pushq  $0x18
    11bb:	e9 60 fe ff ff       	jmpq   1020 <.plt>

00000000000011c0 <snprintf@plt>:
    11c0:	ff 25 1a 3f 00 00    	jmpq   *0x3f1a(%rip)        # 50e0 <snprintf@GLIBC_2.2.5>
    11c6:	68 19 00 00 00       	pushq  $0x19
    11cb:	e9 50 fe ff ff       	jmpq   1020 <.plt>

00000000000011d0 <memmove@plt>:
    11d0:	ff 25 12 3f 00 00    	jmpq   *0x3f12(%rip)        # 50e8 <memmove@GLIBC_2.2.5>
    11d6:	68 1a 00 00 00       	pushq  $0x1a
    11db:	e9 40 fe ff ff       	jmpq   1020 <.plt>

00000000000011e0 <realloc@plt>:
    11e0:	ff 25 0a 3f 00 00    	jmpq   *0x3f0a(%rip)        # 50f0 <realloc@GLIBC_2.2.5>
    11e6:	68 1b 00 00 00       	pushq  $0x1b
    11eb:	e9 30 fe ff ff       	jmpq   1020 <.plt>

00000000000011f0 <access@plt>:
    11f0:	ff 25 02 3f 00 00    	jmpq   *0x3f02(%rip)        # 50f8 <access@GLIBC_2.2.5>
    11f6:	68 1c 00 00 00       	pushq  $0x1c
    11fb:	e9 20 fe ff ff       	jmpq   1020 <.plt>

0000000000001200 <curl_easy_escape@plt>:
    1200:	ff 25 fa 3e 00 00    	jmpq   *0x3efa(%rip)        # 5100 <curl_easy_escape@CURL_OPENSSL_4>
    1206:	68 1d 00 00 00       	pushq  $0x1d
    120b:	e9 10 fe ff ff       	jmpq   1020 <.plt>

Disassembly of section .plt.got:

0000000000001210 <__cxa_finalize@plt>:
    1210:	ff 25 c2 3d 00 00    	jmpq   *0x3dc2(%rip)        # 4fd8 <__cxa_finalize@GLIBC_2.2.5>
    1216:	66 90                	xchg   %ax,%ax

Disassembly of section .text:

0000000000001220 <_start>:
    1220:	31 ed                	xor    %ebp,%ebp
    1222:	49 89 d1             	mov    %rdx,%r9
    1225:	5e                   	pop    %rsi
    1226:	48 89 e2             	mov    %rsp,%rdx
    1229:	48 83 e4 f0          	and    $0xfffffffffffffff0,%rsp
    122d:	50                   	push   %rax
    122e:	54                   	push   %rsp
    122f:	4c 8d 05 da 0e 00 00 	lea    0xeda(%rip),%r8        # 2110 <__libc_csu_fini>
    1236:	48 8d 0d 73 0e 00 00 	lea    0xe73(%rip),%rcx        # 20b0 <__libc_csu_init>
    123d:	48 8d 3d fc 01 00 00 	lea    0x1fc(%rip),%rdi        # 1440 <main>
    1244:	ff 15 9e 3d 00 00    	callq  *0x3d9e(%rip)        # 4fe8 <__libc_start_main@GLIBC_2.2.5>
    124a:	f4                   	hlt    
    124b:	0f 1f 44 00 00       	nopl   0x0(%rax,%rax,1)

0000000000001250 <deregister_tm_clones>:
    1250:	48 8d 3d 89 3f 00 00 	lea    0x3f89(%rip),%rdi        # 51e0 <stdin@@GLIBC_2.2.5>
    1257:	48 8d 05 82 3f 00 00 	lea    0x3f82(%rip),%rax        # 51e0 <stdin@@GLIBC_2.2.5>
    125e:	48 39 f8             	cmp    %rdi,%rax
    1261:	74 15                	je     1278 <deregister_tm_clones+0x28>
    1263:	48 8b 05 76 3d 00 00 	mov    0x3d76(%rip),%rax        # 4fe0 <_ITM_deregisterTMCloneTable>
    126a:	48 85 c0             	test   %rax,%rax
    126d:	74 09                	je     1278 <deregister_tm_clones+0x28>
    126f:	ff e0                	jmpq   *%rax
    1271:	0f 1f 80 00 00 00 00 	nopl   0x0(%rax)
    1278:	c3                   	retq   
    1279:	0f 1f 80 00 00 00 00 	nopl   0x0(%rax)

0000000000001280 <register_tm_clones>:
    1280:	48 8d 3d 59 3f 00 00 	lea    0x3f59(%rip),%rdi        # 51e0 <stdin@@GLIBC_2.2.5>
    1287:	48 8d 35 52 3f 00 00 	lea    0x3f52(%rip),%rsi        # 51e0 <stdin@@GLIBC_2.2.5>
    128e:	48 29 fe             	sub    %rdi,%rsi
    1291:	48 89 f0             	mov    %rsi,%rax
    1294:	48 c1 ee 3f          	shr    $0x3f,%rsi
    1298:	48 c1 f8 03          	sar    $0x3,%rax
    129c:	48 01 c6             	add    %rax,%rsi
    129f:	48 d1 fe             	sar    %rsi
    12a2:	74 14                	je     12b8 <register_tm_clones+0x38>
    12a4:	48 8b 05 4d 3d 00 00 	mov    0x3d4d(%rip),%rax        # 4ff8 <_ITM_registerTMCloneTable>
    12ab:	48 85 c0             	test   %rax,%rax
    12ae:	74 08                	je     12b8 <register_tm_clones+0x38>
    12b0:	ff e0                	jmpq   *%rax
    12b2:	66 0f 1f 44 00 00    	nopw   0x0(%rax,%rax,1)
    12b8:	c3                   	retq   
    12b9:	0f 1f 80 00 00 00 00 	nopl   0x0(%rax)

00000000000012c0 <__do_global_dtors_aux>:
    12c0:	80 3d 21 3f 00 00 00 	cmpb   $0x0,0x3f21(%rip)        # 51e8 <completed.7444>
    12c7:	75 2f                	jne    12f8 <__do_global_dtors_aux+0x38>
    12c9:	55                   	push   %rbp
    12ca:	48 83 3d 06 3d 00 00 	cmpq   $0x0,0x3d06(%rip)        # 4fd8 <__cxa_finalize@GLIBC_2.2.5>
    12d1:	00 
    12d2:	48 89 e5             	mov    %rsp,%rbp
    12d5:	74 0c                	je     12e3 <__do_global_dtors_aux+0x23>
    12d7:	48 8b 3d 4a 3e 00 00 	mov    0x3e4a(%rip),%rdi        # 5128 <__dso_handle>
    12de:	e8 2d ff ff ff       	callq  1210 <__cxa_finalize@plt>
    12e3:	e8 68 ff ff ff       	callq  1250 <deregister_tm_clones>
    12e8:	c6 05 f9 3e 00 00 01 	movb   $0x1,0x3ef9(%rip)        # 51e8 <completed.7444>
    12ef:	5d                   	pop    %rbp
    12f0:	c3                   	retq   
    12f1:	0f 1f 80 00 00 00 00 	nopl   0x0(%rax)
    12f8:	c3                   	retq   
    12f9:	0f 1f 80 00 00 00 00 	nopl   0x0(%rax)

0000000000001300 <frame_dummy>:
    1300:	e9 7b ff ff ff       	jmpq   1280 <register_tm_clones>

0000000000001305 <send_msg>:
    1305:	48 81 ec 08 20 00 00 	sub    $0x2008,%rsp
    130c:	89 f1                	mov    %esi,%ecx
    130e:	49 89 d0             	mov    %rdx,%r8
    1311:	49 89 e1             	mov    %rsp,%r9
    1314:	89 fa                	mov    %edi,%edx
    1316:	48 8d 35 43 3e 00 00 	lea    0x3e43(%rip),%rsi        # 5160 <user_password>
    131d:	48 8d 3d 5d 3e 00 00 	lea    0x3e5d(%rip),%rdi        # 5181 <user_id>
    1324:	e8 06 0b 00 00       	callq  1e2f <driver_post>
    1329:	85 c0                	test   %eax,%eax
    132b:	75 08                	jne    1335 <send_msg+0x30>
    132d:	48 81 c4 08 20 00 00 	add    $0x2008,%rsp
    1334:	c3                   	retq   
    1335:	48 89 e6             	mov    %rsp,%rsi
    1338:	48 8d 3d c5 1c 00 00 	lea    0x1cc5(%rip),%rdi        # 3004 <_IO_stdin_used+0x4>
    133f:	b8 00 00 00 00       	mov    $0x0,%eax
    1344:	e8 e7 fc ff ff       	callq  1030 <printf@plt>
    1349:	bf 01 00 00 00       	mov    $0x1,%edi
    134e:	e8 dd fd ff ff       	callq  1130 <exit@plt>

0000000000001353 <initialize_bomb>:
    1353:	48 81 ec 08 20 00 00 	sub    $0x2008,%rsp
    135a:	48 89 e2             	mov    %rsp,%rdx
    135d:	48 8d 35 fc 3d 00 00 	lea    0x3dfc(%rip),%rsi        # 5160 <user_password>
    1364:	48 8d 3d 16 3e 00 00 	lea    0x3e16(%rip),%rdi        # 5181 <user_id>
    136b:	e8 b3 09 00 00       	callq  1d23 <init_driver>
    1370:	85 c0                	test   %eax,%eax
    1372:	75 08                	jne    137c <initialize_bomb+0x29>
    1374:	48 81 c4 08 20 00 00 	add    $0x2008,%rsp
    137b:	c3                   	retq   
    137c:	48 89 e6             	mov    %rsp,%rsi
    137f:	48 8d 3d 62 1d 00 00 	lea    0x1d62(%rip),%rdi        # 30e8 <_IO_stdin_used+0xe8>
    1386:	b8 00 00 00 00       	mov    $0x0,%eax
    138b:	e8 a0 fc ff ff       	callq  1030 <printf@plt>
    1390:	bf 01 00 00 00       	mov    $0x1,%edi
    1395:	e8 96 fd ff ff       	callq  1130 <exit@plt>

000000000000139a <phase_defused>:
    139a:	48 83 ec 08          	sub    $0x8,%rsp
    139e:	48 89 f2             	mov    %rsi,%rdx
    13a1:	89 fe                	mov    %edi,%esi
    13a3:	bf 01 00 00 00       	mov    $0x1,%edi
    13a8:	e8 58 ff ff ff       	callq  1305 <send_msg>
    13ad:	48 83 c4 08          	add    $0x8,%rsp
    13b1:	c3                   	retq   

00000000000013b2 <explode_bomb>:
    13b2:	48 83 ec 08          	sub    $0x8,%rsp
    13b6:	48 89 f2             	mov    %rsi,%rdx
    13b9:	89 fe                	mov    %edi,%esi
    13bb:	bf 00 00 00 00       	mov    $0x0,%edi
    13c0:	e8 40 ff ff ff       	callq  1305 <send_msg>
    13c5:	48 83 c4 08          	add    $0x8,%rsp
    13c9:	c3                   	retq   

00000000000013ca <strip>:
    13ca:	41 54                	push   %r12
    13cc:	55                   	push   %rbp
    13cd:	53                   	push   %rbx
    13ce:	49 89 fc             	mov    %rdi,%r12
    13d1:	48 89 fd             	mov    %rdi,%rbp
    13d4:	e8 07 fd ff ff       	callq  10e0 <__ctype_b_loc@plt>
    13d9:	48 8b 10             	mov    (%rax),%rdx
    13dc:	0f b6 45 00          	movzbl 0x0(%rbp),%eax
    13e0:	0f b6 c8             	movzbl %al,%ecx
    13e3:	f6 44 4a 01 20       	testb  $0x20,0x1(%rdx,%rcx,2)
    13e8:	74 06                	je     13f0 <strip+0x26>
    13ea:	48 83 c5 01          	add    $0x1,%rbp
    13ee:	eb e4                	jmp    13d4 <strip+0xa>
    13f0:	84 c0                	test   %al,%al
    13f2:	75 21                	jne    1415 <strip+0x4b>
    13f4:	bb 00 00 00 00       	mov    $0x0,%ebx
    13f9:	4c 39 e5             	cmp    %r12,%rbp
    13fc:	74 0f                	je     140d <strip+0x43>
    13fe:	48 8d 53 01          	lea    0x1(%rbx),%rdx
    1402:	48 89 ee             	mov    %rbp,%rsi
    1405:	4c 89 e7             	mov    %r12,%rdi
    1408:	e8 c3 fd ff ff       	callq  11d0 <memmove@plt>
    140d:	48 89 d8             	mov    %rbx,%rax
    1410:	5b                   	pop    %rbx
    1411:	5d                   	pop    %rbp
    1412:	41 5c                	pop    %r12
    1414:	c3                   	retq   
    1415:	48 89 e8             	mov    %rbp,%rax
    1418:	80 38 00             	cmpb   $0x0,(%rax)
    141b:	74 06                	je     1423 <strip+0x59>
    141d:	48 83 c0 01          	add    $0x1,%rax
    1421:	eb f5                	jmp    1418 <strip+0x4e>
    1423:	48 89 c6             	mov    %rax,%rsi
    1426:	48 83 e8 01          	sub    $0x1,%rax
    142a:	0f b6 08             	movzbl (%rax),%ecx
    142d:	f6 44 4a 01 20       	testb  $0x20,0x1(%rdx,%rcx,2)
    1432:	75 ef                	jne    1423 <strip+0x59>
    1434:	c6 06 00             	movb   $0x0,(%rsi)
    1437:	48 29 e8             	sub    %rbp,%rax
    143a:	48 8d 58 01          	lea    0x1(%rax),%rbx
    143e:	eb b9                	jmp    13f9 <strip+0x2f>

0000000000001440 <main>:
    1440:	55                   	push   %rbp
    1441:	53                   	push   %rbx
    1442:	48 81 ec 88 01 00 00 	sub    $0x188,%rsp
    1449:	83 ff 02             	cmp    $0x2,%edi
    144c:	74 16                	je     1464 <main+0x24>
    144e:	48 8d 3d bb 1c 00 00 	lea    0x1cbb(%rip),%rdi        # 3110 <_IO_stdin_used+0x110>
    1455:	e8 46 fd ff ff       	callq  11a0 <puts@plt>
    145a:	bf 01 00 00 00       	mov    $0x1,%edi
    145f:	e8 cc fc ff ff       	callq  1130 <exit@plt>
    1464:	48 89 f3             	mov    %rsi,%rbx
    1467:	48 8d 74 24 08       	lea    0x8(%rsp),%rsi
    146c:	48 8b 7b 08          	mov    0x8(%rbx),%rdi
    1470:	ba 0a 00 00 00       	mov    $0xa,%edx
    1475:	e8 06 fd ff ff       	callq  1180 <strtol@plt>
    147a:	48 89 c5             	mov    %rax,%rbp
    147d:	48 8b 73 08          	mov    0x8(%rbx),%rsi
    1481:	48 3b 74 24 08       	cmp    0x8(%rsp),%rsi
    1486:	74 28                	je     14b0 <main+0x70>
    1488:	48 8d 40 ff          	lea    -0x1(%rax),%rax
    148c:	48 83 f8 06          	cmp    $0x6,%rax
    1490:	76 39                	jbe    14cb <main+0x8b>
    1492:	48 89 ee             	mov    %rbp,%rsi
    1495:	48 8d 3d f4 1c 00 00 	lea    0x1cf4(%rip),%rdi        # 3190 <_IO_stdin_used+0x190>
    149c:	b8 00 00 00 00       	mov    $0x0,%eax
    14a1:	e8 8a fb ff ff       	callq  1030 <printf@plt>
    14a6:	bf 01 00 00 00       	mov    $0x1,%edi
    14ab:	e8 80 fc ff ff       	callq  1130 <exit@plt>
    14b0:	48 8d 3d a1 1c 00 00 	lea    0x1ca1(%rip),%rdi        # 3158 <_IO_stdin_used+0x158>
    14b7:	b8 00 00 00 00       	mov    $0x0,%eax
    14bc:	e8 6f fb ff ff       	callq  1030 <printf@plt>
    14c1:	bf 01 00 00 00       	mov    $0x1,%edi
    14c6:	e8 65 fc ff ff       	callq  1130 <exit@plt>
    14cb:	48 8d 9c 24 60 01 00 	lea    0x160(%rsp),%rbx
    14d2:	00 
    14d3:	89 e9                	mov    %ebp,%ecx
    14d5:	48 8d 15 33 1b 00 00 	lea    0x1b33(%rip),%rdx        # 300f <_IO_stdin_used+0xf>
    14dc:	be 14 00 00 00       	mov    $0x14,%esi
    14e1:	48 89 df             	mov    %rbx,%rdi
    14e4:	b8 00 00 00 00       	mov    $0x0,%eax
    14e9:	e8 d2 fc ff ff       	callq  11c0 <snprintf@plt>
    14ee:	be 00 00 00 00       	mov    $0x0,%esi
    14f3:	48 89 df             	mov    %rbx,%rdi
    14f6:	e8 f5 fc ff ff       	callq  11f0 <access@plt>
    14fb:	85 c0                	test   %eax,%eax
    14fd:	75 1e                	jne    151d <main+0xdd>
    14ff:	48 8d b4 24 60 01 00 	lea    0x160(%rsp),%rsi
    1506:	00 
    1507:	48 8d 3d ba 1c 00 00 	lea    0x1cba(%rip),%rdi        # 31c8 <_IO_stdin_used+0x1c8>
    150e:	e8 1d fb ff ff       	callq  1030 <printf@plt>
    1513:	bf 01 00 00 00       	mov    $0x1,%edi
    1518:	e8 13 fc ff ff       	callq  1130 <exit@plt>
    151d:	48 8d 05 ff 02 00 00 	lea    0x2ff(%rip),%rax        # 1823 <phase_1>
    1524:	48 89 84 24 20 01 00 	mov    %rax,0x120(%rsp)
    152b:	00 
    152c:	48 8d 05 08 03 00 00 	lea    0x308(%rip),%rax        # 183b <phase_2>
    1533:	48 89 84 24 28 01 00 	mov    %rax,0x128(%rsp)
    153a:	00 
    153b:	48 8d 05 70 03 00 00 	lea    0x370(%rip),%rax        # 18b2 <phase_3>
    1542:	48 89 84 24 30 01 00 	mov    %rax,0x130(%rsp)
    1549:	00 
    154a:	48 8d 05 c4 03 00 00 	lea    0x3c4(%rip),%rax        # 1915 <phase_4>
    1551:	48 89 84 24 38 01 00 	mov    %rax,0x138(%rsp)
    1558:	00 
    1559:	48 8d 05 ca 04 00 00 	lea    0x4ca(%rip),%rax        # 1a2a <phase_5>
    1560:	48 89 84 24 40 01 00 	mov    %rax,0x140(%rsp)
    1567:	00 
    1568:	48 8d 05 34 05 00 00 	lea    0x534(%rip),%rax        # 1aa3 <phase_6>
    156f:	48 89 84 24 48 01 00 	mov    %rax,0x148(%rsp)
    1576:	00 
    1577:	48 8d 05 34 06 00 00 	lea    0x634(%rip),%rax        # 1bb2 <phase_7>
    157e:	48 89 84 24 50 01 00 	mov    %rax,0x150(%rsp)
    1585:	00 
    1586:	48 8d 05 7b 1c 00 00 	lea    0x1c7b(%rip),%rax        # 3208 <_IO_stdin_used+0x208>
    158d:	48 89 84 24 e0 00 00 	mov    %rax,0xe0(%rsp)
    1594:	00 
    1595:	48 8d 05 94 1c 00 00 	lea    0x1c94(%rip),%rax        # 3230 <_IO_stdin_used+0x230>
    159c:	48 89 84 24 e8 00 00 	mov    %rax,0xe8(%rsp)
    15a3:	00 
    15a4:	48 8d 05 ad 1c 00 00 	lea    0x1cad(%rip),%rax        # 3258 <_IO_stdin_used+0x258>
    15ab:	48 89 84 24 f0 00 00 	mov    %rax,0xf0(%rsp)
    15b2:	00 
    15b3:	48 8d 05 c6 1c 00 00 	lea    0x1cc6(%rip),%rax        # 3280 <_IO_stdin_used+0x280>
    15ba:	48 89 84 24 f8 00 00 	mov    %rax,0xf8(%rsp)
    15c1:	00 
    15c2:	48 8d 05 50 1a 00 00 	lea    0x1a50(%rip),%rax        # 3019 <_IO_stdin_used+0x19>
    15c9:	48 89 84 24 00 01 00 	mov    %rax,0x100(%rsp)
    15d0:	00 
    15d1:	48 8d 05 5f 1a 00 00 	lea    0x1a5f(%rip),%rax        # 3037 <_IO_stdin_used+0x37>
    15d8:	48 89 84 24 08 01 00 	mov    %rax,0x108(%rsp)
    15df:	00 
    15e0:	48 8d 05 6e 1a 00 00 	lea    0x1a6e(%rip),%rax        # 3055 <_IO_stdin_used+0x55>
    15e7:	48 89 84 24 10 01 00 	mov    %rax,0x110(%rsp)
    15ee:	00 
    15ef:	e8 5f fd ff ff       	callq  1353 <initialize_bomb>
    15f4:	48 8d 3d ad 1c 00 00 	lea    0x1cad(%rip),%rdi        # 32a8 <_IO_stdin_used+0x2a8>
    15fb:	e8 a0 fb ff ff       	callq  11a0 <puts@plt>
    1600:	89 ee                	mov    %ebp,%esi
    1602:	48 8d 3d cf 1c 00 00 	lea    0x1ccf(%rip),%rdi        # 32d8 <_IO_stdin_used+0x2d8>
    1609:	b8 00 00 00 00       	mov    $0x0,%eax
    160e:	e8 1d fa ff ff       	callq  1030 <printf@plt>
    1613:	48 8d 3d 51 1a 00 00 	lea    0x1a51(%rip),%rdi        # 306b <_IO_stdin_used+0x6b>
    161a:	e8 81 fb ff ff       	callq  11a0 <puts@plt>
    161f:	48 8d 7c 24 10       	lea    0x10(%rsp),%rdi
    1624:	48 8b 15 b5 3b 00 00 	mov    0x3bb5(%rip),%rdx        # 51e0 <stdin@@GLIBC_2.2.5>
    162b:	be c8 00 00 00       	mov    $0xc8,%esi
    1630:	e8 7b fb ff ff       	callq  11b0 <fgets@plt>
    1635:	48 85 c0             	test   %rax,%rax
    1638:	0f 84 c8 00 00 00    	je     1706 <main+0x2c6>
    163e:	48 8d 3d c9 19 00 00 	lea    0x19c9(%rip),%rdi        # 300e <_IO_stdin_used+0xe>
    1645:	e8 56 fb ff ff       	callq  11a0 <puts@plt>
    164a:	48 8d 7c 24 10       	lea    0x10(%rsp),%rdi
    164f:	e8 76 fd ff ff       	callq  13ca <strip>
    1654:	80 7c 24 10 00       	cmpb   $0x0,0x10(%rsp)
    1659:	0f 84 bd 00 00 00    	je     171c <main+0x2dc>
    165f:	8d 5d ff             	lea    -0x1(%rbp),%ebx
    1662:	48 63 c3             	movslq %ebx,%rax
    1665:	48 8d 7c 24 10       	lea    0x10(%rsp),%rdi
    166a:	ff 94 c4 20 01 00 00 	callq  *0x120(%rsp,%rax,8)
    1671:	85 c0                	test   %eax,%eax
    1673:	0f 85 dc 00 00 00    	jne    1755 <main+0x315>
    1679:	48 8d 74 24 10       	lea    0x10(%rsp),%rsi
    167e:	89 ef                	mov    %ebp,%edi
    1680:	e8 15 fd ff ff       	callq  139a <phase_defused>
    1685:	48 8d bc 24 60 01 00 	lea    0x160(%rsp),%rdi
    168c:	00 
    168d:	48 8d 35 11 1a 00 00 	lea    0x1a11(%rip),%rsi        # 30a5 <_IO_stdin_used+0xa5>
    1694:	e8 77 fa ff ff       	callq  1110 <fopen@plt>
    1699:	48 89 c5             	mov    %rax,%rbp
    169c:	48 85 c0             	test   %rax,%rax
    169f:	0f 84 8d 00 00 00    	je     1732 <main+0x2f2>
    16a5:	48 8d 7c 24 10       	lea    0x10(%rsp),%rdi
    16aa:	48 89 c6             	mov    %rax,%rsi
    16ad:	e8 3e fa ff ff       	callq  10f0 <fputs@plt>
    16b2:	48 89 ee             	mov    %rbp,%rsi
    16b5:	bf 0a 00 00 00       	mov    $0xa,%edi
    16ba:	e8 91 fa ff ff       	callq  1150 <fputc@plt>
    16bf:	48 89 ef             	mov    %rbp,%rdi
    16c2:	e8 09 fa ff ff       	callq  10d0 <fclose@plt>
    16c7:	48 63 db             	movslq %ebx,%rbx
    16ca:	48 8b b4 dc e0 00 00 	mov    0xe0(%rsp,%rbx,8),%rsi
    16d1:	00 
    16d2:	48 8d 3d ce 19 00 00 	lea    0x19ce(%rip),%rdi        # 30a7 <_IO_stdin_used+0xa7>
    16d9:	b8 00 00 00 00       	mov    $0x0,%eax
    16de:	e8 4d f9 ff ff       	callq  1030 <printf@plt>
    16e3:	48 8d b4 24 60 01 00 	lea    0x160(%rsp),%rsi
    16ea:	00 
    16eb:	48 8d 3d 56 1c 00 00 	lea    0x1c56(%rip),%rdi        # 3348 <_IO_stdin_used+0x348>
    16f2:	b8 00 00 00 00       	mov    $0x0,%eax
    16f7:	e8 34 f9 ff ff       	callq  1030 <printf@plt>
    16fc:	bf 00 00 00 00       	mov    $0x0,%edi
    1701:	e8 2a fa ff ff       	callq  1130 <exit@plt>
    1706:	48 8d 3d 73 19 00 00 	lea    0x1973(%rip),%rdi        # 3080 <_IO_stdin_used+0x80>
    170d:	e8 8e fa ff ff       	callq  11a0 <puts@plt>
    1712:	bf 01 00 00 00       	mov    $0x1,%edi
    1717:	e8 14 fa ff ff       	callq  1130 <exit@plt>
    171c:	48 8d 3d 6e 19 00 00 	lea    0x196e(%rip),%rdi        # 3091 <_IO_stdin_used+0x91>
    1723:	e8 78 fa ff ff       	callq  11a0 <puts@plt>
    1728:	bf 01 00 00 00       	mov    $0x1,%edi
    172d:	e8 fe f9 ff ff       	callq  1130 <exit@plt>
    1732:	48 8d b4 24 60 01 00 	lea    0x160(%rsp),%rsi
    1739:	00 
    173a:	48 8d 3d c7 1b 00 00 	lea    0x1bc7(%rip),%rdi        # 3308 <_IO_stdin_used+0x308>
    1741:	b8 00 00 00 00       	mov    $0x0,%eax
    1746:	e8 e5 f8 ff ff       	callq  1030 <printf@plt>
    174b:	bf 01 00 00 00       	mov    $0x1,%edi
    1750:	e8 db f9 ff ff       	callq  1130 <exit@plt>
    1755:	48 8d 74 24 10       	lea    0x10(%rsp),%rsi
    175a:	89 ef                	mov    %ebp,%edi
    175c:	e8 51 fc ff ff       	callq  13b2 <explode_bomb>
    1761:	48 8d 3d 55 19 00 00 	lea    0x1955(%rip),%rdi        # 30bd <_IO_stdin_used+0xbd>
    1768:	e8 33 fa ff ff       	callq  11a0 <puts@plt>
    176d:	48 8d 3d 5a 19 00 00 	lea    0x195a(%rip),%rdi        # 30ce <_IO_stdin_used+0xce>
    1774:	e8 27 fa ff ff       	callq  11a0 <puts@plt>
    1779:	48 8d 3d 00 1c 00 00 	lea    0x1c00(%rip),%rdi        # 3380 <_IO_stdin_used+0x380>
    1780:	e8 1b fa ff ff       	callq  11a0 <puts@plt>
    1785:	bf 02 00 00 00       	mov    $0x2,%edi
    178a:	e8 a1 f9 ff ff       	callq  1130 <exit@plt>

000000000000178f <read_six_numbers>:
    178f:	48 83 ec 08          	sub    $0x8,%rsp
    1793:	48 89 f2             	mov    %rsi,%rdx
    1796:	48 8d 4e 04          	lea    0x4(%rsi),%rcx
    179a:	48 8d 46 14          	lea    0x14(%rsi),%rax
    179e:	50                   	push   %rax
    179f:	48 8d 46 10          	lea    0x10(%rsi),%rax
    17a3:	50                   	push   %rax
    17a4:	4c 8d 4e 0c          	lea    0xc(%rsi),%r9
    17a8:	4c 8d 46 08          	lea    0x8(%rsi),%r8
    17ac:	48 8d 35 f4 1b 00 00 	lea    0x1bf4(%rip),%rsi        # 33a7 <_IO_stdin_used+0x3a7>
    17b3:	b8 00 00 00 00       	mov    $0x0,%eax
    17b8:	e8 03 f9 ff ff       	callq  10c0 <__isoc99_sscanf@plt>
    17bd:	48 83 c4 18          	add    $0x18,%rsp
    17c1:	c3                   	retq   

00000000000017c2 <string_length>:
    17c2:	b8 00 00 00 00       	mov    $0x0,%eax
    17c7:	80 3f 00             	cmpb   $0x0,(%rdi)
    17ca:	74 09                	je     17d5 <string_length+0x13>
    17cc:	48 83 c7 01          	add    $0x1,%rdi
    17d0:	83 c0 01             	add    $0x1,%eax
    17d3:	eb f2                	jmp    17c7 <string_length+0x5>
    17d5:	c3                   	retq   

00000000000017d6 <strings_not_equal>:
    17d6:	41 54                	push   %r12
    17d8:	55                   	push   %rbp
    17d9:	53                   	push   %rbx
    17da:	48 89 fb             	mov    %rdi,%rbx
    17dd:	48 89 f5             	mov    %rsi,%rbp
    17e0:	e8 dd ff ff ff       	callq  17c2 <string_length>
    17e5:	41 89 c4             	mov    %eax,%r12d
    17e8:	48 89 ef             	mov    %rbp,%rdi
    17eb:	e8 d2 ff ff ff       	callq  17c2 <string_length>
    17f0:	41 39 c4             	cmp    %eax,%r12d
    17f3:	75 1d                	jne    1812 <strings_not_equal+0x3c>
    17f5:	0f b6 03             	movzbl (%rbx),%eax
    17f8:	84 c0                	test   %al,%al
    17fa:	74 0f                	je     180b <strings_not_equal+0x35>
    17fc:	38 45 00             	cmp    %al,0x0(%rbp)
    17ff:	75 1b                	jne    181c <strings_not_equal+0x46>
    1801:	48 83 c3 01          	add    $0x1,%rbx
    1805:	48 83 c5 01          	add    $0x1,%rbp
    1809:	eb ea                	jmp    17f5 <strings_not_equal+0x1f>
    180b:	b8 00 00 00 00       	mov    $0x0,%eax
    1810:	eb 05                	jmp    1817 <strings_not_equal+0x41>
    1812:	b8 01 00 00 00       	mov    $0x1,%eax
    1817:	5b                   	pop    %rbx
    1818:	5d                   	pop    %rbp
    1819:	41 5c                	pop    %r12
    181b:	c3                   	retq   
    181c:	b8 01 00 00 00       	mov    $0x1,%eax
    1821:	eb f4                	jmp    1817 <strings_not_equal+0x41>

0000000000001823 <phase_1>:
    1823:	48 8d 35 96 1b 00 00 	lea    0x1b96(%rip),%rsi        # 33c0 <_IO_stdin_used+0x3c0>
    182a:	e8 a7 ff ff ff       	callq  17d6 <strings_not_equal>
    182f:	85 c0                	test   %eax,%eax
    1831:	75 01                	jne    1834 <phase_1+0x11>
    1833:	c3                   	retq   
    1834:	b8 01 00 00 00       	mov    $0x1,%eax
    1839:	eb f8                	jmp    1833 <phase_1+0x10>

000000000000183b <phase_2>:
    183b:	48 83 ec 18          	sub    $0x18,%rsp
    183f:	48 8d 4c 24 08       	lea    0x8(%rsp),%rcx
    1844:	48 8d 54 24 0c       	lea    0xc(%rsp),%rdx
    1849:	48 8d 35 63 1b 00 00 	lea    0x1b63(%rip),%rsi        # 33b3 <_IO_stdin_used+0x3b3>
    1850:	b8 00 00 00 00       	mov    $0x0,%eax
    1855:	e8 66 f8 ff ff       	callq  10c0 <__isoc99_sscanf@plt>
    185a:	83 f8 01             	cmp    $0x1,%eax
    185d:	7e 26                	jle    1885 <phase_2+0x4a>
    185f:	8b 44 24 0c          	mov    0xc(%rsp),%eax
    1863:	85 c0                	test   %eax,%eax
    1865:	74 28                	je     188f <phase_2+0x54>
    1867:	8b 54 24 08          	mov    0x8(%rsp),%edx
    186b:	85 d2                	test   %edx,%edx
    186d:	74 27                	je     1896 <phase_2+0x5b>
    186f:	a8 01                	test   $0x1,%al
    1871:	75 2a                	jne    189d <phase_2+0x62>
    1873:	39 d0                	cmp    %edx,%eax
    1875:	7e 2d                	jle    18a4 <phase_2+0x69>
    1877:	01 d0                	add    %edx,%eax
    1879:	83 f8 7b             	cmp    $0x7b,%eax
    187c:	75 2d                	jne    18ab <phase_2+0x70>
    187e:	b8 00 00 00 00       	mov    $0x0,%eax
    1883:	eb 05                	jmp    188a <phase_2+0x4f>
    1885:	b8 01 00 00 00       	mov    $0x1,%eax
    188a:	48 83 c4 18          	add    $0x18,%rsp
    188e:	c3                   	retq   
    188f:	b8 01 00 00 00       	mov    $0x1,%eax
    1894:	eb f4                	jmp    188a <phase_2+0x4f>
    1896:	b8 01 00 00 00       	mov    $0x1,%eax
    189b:	eb ed                	jmp    188a <phase_2+0x4f>
    189d:	b8 01 00 00 00       	mov    $0x1,%eax
    18a2:	eb e6                	jmp    188a <phase_2+0x4f>
    18a4:	b8 01 00 00 00       	mov    $0x1,%eax
    18a9:	eb df                	jmp    188a <phase_2+0x4f>
    18ab:	b8 01 00 00 00       	mov    $0x1,%eax
    18b0:	eb d8                	jmp    188a <phase_2+0x4f>

00000000000018b2 <phase_3>:
    18b2:	48 83 ec 28          	sub    $0x28,%rsp
    18b6:	48 89 e6             	mov    %rsp,%rsi
    18b9:	e8 d1 fe ff ff       	callq  178f <read_six_numbers>
    18be:	83 f8 06             	cmp    $0x6,%eax
    18c1:	75 3a                	jne    18fd <phase_3+0x4b>
    18c3:	81 3c 24 f9 02 00 00 	cmpl   $0x2f9,(%rsp)
    18ca:	75 3b                	jne    1907 <phase_3+0x55>
    18cc:	be 60 00 00 00       	mov    $0x60,%esi
    18d1:	b8 01 00 00 00       	mov    $0x1,%eax
    18d6:	83 f8 05             	cmp    $0x5,%eax
    18d9:	7f 1b                	jg     18f6 <phase_3+0x44>
    18db:	48 63 d0             	movslq %eax,%rdx
    18de:	8d 48 ff             	lea    -0x1(%rax),%ecx
    18e1:	48 63 c9             	movslq %ecx,%rcx
    18e4:	89 f7                	mov    %esi,%edi
    18e6:	2b 3c 8c             	sub    (%rsp,%rcx,4),%edi
    18e9:	39 3c 94             	cmp    %edi,(%rsp,%rdx,4)
    18ec:	75 20                	jne    190e <phase_3+0x5c>
    18ee:	83 c6 60             	add    $0x60,%esi
    18f1:	83 c0 01             	add    $0x1,%eax
    18f4:	eb e0                	jmp    18d6 <phase_3+0x24>
    18f6:	b8 00 00 00 00       	mov    $0x0,%eax
    18fb:	eb 05                	jmp    1902 <phase_3+0x50>
    18fd:	b8 01 00 00 00       	mov    $0x1,%eax
    1902:	48 83 c4 28          	add    $0x28,%rsp
    1906:	c3                   	retq   
    1907:	b8 01 00 00 00       	mov    $0x1,%eax
    190c:	eb f4                	jmp    1902 <phase_3+0x50>
    190e:	b8 01 00 00 00       	mov    $0x1,%eax
    1913:	eb ed                	jmp    1902 <phase_3+0x50>

0000000000001915 <phase_4>:
    1915:	48 83 ec 18          	sub    $0x18,%rsp
    1919:	48 8d 4c 24 08       	lea    0x8(%rsp),%rcx
    191e:	48 8d 54 24 0c       	lea    0xc(%rsp),%rdx
    1923:	48 8d 35 89 1a 00 00 	lea    0x1a89(%rip),%rsi        # 33b3 <_IO_stdin_used+0x3b3>
    192a:	b8 00 00 00 00       	mov    $0x0,%eax
    192f:	e8 8c f7 ff ff       	callq  10c0 <__isoc99_sscanf@plt>
    1934:	83 f8 01             	cmp    $0x1,%eax
    1937:	0f 8e 95 00 00 00    	jle    19d2 <phase_4+0xbd>
    193d:	8b 74 24 08          	mov    0x8(%rsp),%esi
    1941:	85 f6                	test   %esi,%esi
    1943:	0f 88 93 00 00 00    	js     19dc <phase_4+0xc7>
    1949:	8b 4c 24 0c          	mov    0xc(%rsp),%ecx
    194d:	83 f9 07             	cmp    $0x7,%ecx
    1950:	0f 87 8d 00 00 00    	ja     19e3 <phase_4+0xce>
    1956:	89 ca                	mov    %ecx,%edx
    1958:	48 8d 3d 91 1a 00 00 	lea    0x1a91(%rip),%rdi        # 33f0 <_IO_stdin_used+0x3f0>
    195f:	48 63 04 97          	movslq (%rdi,%rdx,4),%rax
    1963:	48 01 f8             	add    %rdi,%rax
    1966:	ff e0                	jmpq   *%rax
    1968:	b8 00 00 00 00       	mov    $0x0,%eax
    196d:	2d cf 00 00 00       	sub    $0xcf,%eax
    1972:	05 df 02 00 00       	add    $0x2df,%eax
    1977:	2d 9c 03 00 00       	sub    $0x39c,%eax
    197c:	83 e8 01             	sub    $0x1,%eax
    197f:	c1 e8 19             	shr    $0x19,%eax
    1982:	05 1b 03 00 00       	add    $0x31b,%eax
    1987:	2d 1b 03 00 00       	sub    $0x31b,%eax
    198c:	05 1b 03 00 00       	add    $0x31b,%eax
    1991:	83 f9 03             	cmp    $0x3,%ecx
    1994:	7e 54                	jle    19ea <phase_4+0xd5>
    1996:	39 c6                	cmp    %eax,%esi
    1998:	75 57                	jne    19f1 <phase_4+0xdc>
    199a:	b8 00 00 00 00       	mov    $0x0,%eax
    199f:	eb 36                	jmp    19d7 <phase_4+0xc2>
    19a1:	b8 49 02 00 00       	mov    $0x249,%eax
    19a6:	eb c5                	jmp    196d <phase_4+0x58>
    19a8:	b8 00 00 00 00       	mov    $0x0,%eax
    19ad:	eb c3                	jmp    1972 <phase_4+0x5d>
    19af:	b8 00 00 00 00       	mov    $0x0,%eax
    19b4:	eb c1                	jmp    1977 <phase_4+0x62>
    19b6:	b8 00 00 00 00       	mov    $0x0,%eax
    19bb:	eb bf                	jmp    197c <phase_4+0x67>
    19bd:	b8 00 00 00 00       	mov    $0x0,%eax
    19c2:	eb be                	jmp    1982 <phase_4+0x6d>
    19c4:	b8 00 00 00 00       	mov    $0x0,%eax
    19c9:	eb bc                	jmp    1987 <phase_4+0x72>
    19cb:	b8 00 00 00 00       	mov    $0x0,%eax
    19d0:	eb ba                	jmp    198c <phase_4+0x77>
    19d2:	b8 01 00 00 00       	mov    $0x1,%eax
    19d7:	48 83 c4 18          	add    $0x18,%rsp
    19db:	c3                   	retq   
    19dc:	b8 01 00 00 00       	mov    $0x1,%eax
    19e1:	eb f4                	jmp    19d7 <phase_4+0xc2>
    19e3:	b8 01 00 00 00       	mov    $0x1,%eax
    19e8:	eb ed                	jmp    19d7 <phase_4+0xc2>
    19ea:	b8 01 00 00 00       	mov    $0x1,%eax
    19ef:	eb e6                	jmp    19d7 <phase_4+0xc2>
    19f1:	b8 01 00 00 00       	mov    $0x1,%eax
    19f6:	eb df                	jmp    19d7 <phase_4+0xc2>

00000000000019f8 <func5>:
    19f8:	53                   	push   %rbx
    19f9:	89 d0                	mov    %edx,%eax
    19fb:	29 f0                	sub    %esi,%eax
    19fd:	89 c3                	mov    %eax,%ebx
    19ff:	c1 eb 1f             	shr    $0x1f,%ebx
    1a02:	01 c3                	add    %eax,%ebx
    1a04:	d1 fb                	sar    %ebx
    1a06:	01 f3                	add    %esi,%ebx
    1a08:	39 fb                	cmp    %edi,%ebx
    1a0a:	7f 06                	jg     1a12 <func5+0x1a>
    1a0c:	7c 10                	jl     1a1e <func5+0x26>
    1a0e:	89 d8                	mov    %ebx,%eax
    1a10:	5b                   	pop    %rbx
    1a11:	c3                   	retq   
    1a12:	8d 53 ff             	lea    -0x1(%rbx),%edx
    1a15:	e8 de ff ff ff       	callq  19f8 <func5>
    1a1a:	01 c3                	add    %eax,%ebx
    1a1c:	eb f0                	jmp    1a0e <func5+0x16>
    1a1e:	8d 73 01             	lea    0x1(%rbx),%esi
    1a21:	e8 d2 ff ff ff       	callq  19f8 <func5>
    1a26:	01 c3                	add    %eax,%ebx
    1a28:	eb e4                	jmp    1a0e <func5+0x16>

0000000000001a2a <phase_5>:
    1a2a:	48 83 ec 18          	sub    $0x18,%rsp
    1a2e:	48 8d 4c 24 08       	lea    0x8(%rsp),%rcx
    1a33:	48 8d 54 24 0c       	lea    0xc(%rsp),%rdx
    1a38:	48 8d 35 74 19 00 00 	lea    0x1974(%rip),%rsi        # 33b3 <_IO_stdin_used+0x3b3>
    1a3f:	b8 00 00 00 00       	mov    $0x0,%eax
    1a44:	e8 77 f6 ff ff       	callq  10c0 <__isoc99_sscanf@plt>
    1a49:	83 f8 02             	cmp    $0x2,%eax
    1a4c:	75 36                	jne    1a84 <phase_5+0x5a>
    1a4e:	8b 7c 24 0c          	mov    0xc(%rsp),%edi
    1a52:	85 ff                	test   %edi,%edi
    1a54:	78 38                	js     1a8e <phase_5+0x64>
    1a56:	83 ff 0e             	cmp    $0xe,%edi
    1a59:	7e 07                	jle    1a62 <phase_5+0x38>
    1a5b:	b8 01 00 00 00       	mov    $0x1,%eax
    1a60:	eb 27                	jmp    1a89 <phase_5+0x5f>
    1a62:	ba 0e 00 00 00       	mov    $0xe,%edx
    1a67:	be 00 00 00 00       	mov    $0x0,%esi
    1a6c:	e8 87 ff ff ff       	callq  19f8 <func5>
    1a71:	83 f8 0b             	cmp    $0xb,%eax
    1a74:	75 1f                	jne    1a95 <phase_5+0x6b>
    1a76:	83 7c 24 08 0b       	cmpl   $0xb,0x8(%rsp)
    1a7b:	75 1f                	jne    1a9c <phase_5+0x72>
    1a7d:	b8 00 00 00 00       	mov    $0x0,%eax
    1a82:	eb 05                	jmp    1a89 <phase_5+0x5f>
    1a84:	b8 01 00 00 00       	mov    $0x1,%eax
    1a89:	48 83 c4 18          	add    $0x18,%rsp
    1a8d:	c3                   	retq   
    1a8e:	b8 01 00 00 00       	mov    $0x1,%eax
    1a93:	eb f4                	jmp    1a89 <phase_5+0x5f>
    1a95:	b8 01 00 00 00       	mov    $0x1,%eax
    1a9a:	eb ed                	jmp    1a89 <phase_5+0x5f>
    1a9c:	b8 01 00 00 00       	mov    $0x1,%eax
    1aa1:	eb e6                	jmp    1a89 <phase_5+0x5f>

0000000000001aa3 <phase_6>:
    1aa3:	48 83 ec 78          	sub    $0x78,%rsp
    1aa7:	c7 44 24 10 05 00 00 	movl   $0x5,0x10(%rsp)
    1aae:	00 
    1aaf:	c7 44 24 14 0d 00 00 	movl   $0xd,0x14(%rsp)
    1ab6:	00 
    1ab7:	c7 44 24 18 07 00 00 	movl   $0x7,0x18(%rsp)
    1abe:	00 
    1abf:	c7 44 24 1c 11 00 00 	movl   $0x11,0x1c(%rsp)
    1ac6:	00 
    1ac7:	c7 44 24 20 03 00 00 	movl   $0x3,0x20(%rsp)
    1ace:	00 
    1acf:	c7 44 24 24 0b 00 00 	movl   $0xb,0x24(%rsp)
    1ad6:	00 
    1ad7:	c7 44 24 28 0e 00 00 	movl   $0xe,0x28(%rsp)
    1ade:	00 
    1adf:	c7 44 24 2c 09 00 00 	movl   $0x9,0x2c(%rsp)
    1ae6:	00 
    1ae7:	c7 44 24 30 12 00 00 	movl   $0x12,0x30(%rsp)
    1aee:	00 
    1aef:	c7 44 24 34 06 00 00 	movl   $0x6,0x34(%rsp)
    1af6:	00 
    1af7:	c7 44 24 38 08 00 00 	movl   $0x8,0x38(%rsp)
    1afe:	00 
    1aff:	c7 44 24 3c 0f 00 00 	movl   $0xf,0x3c(%rsp)
    1b06:	00 
    1b07:	c7 44 24 40 14 00 00 	movl   $0x14,0x40(%rsp)
    1b0e:	00 
    1b0f:	c7 44 24 44 01 00 00 	movl   $0x1,0x44(%rsp)
    1b16:	00 
    1b17:	c7 44 24 48 0a 00 00 	movl   $0xa,0x48(%rsp)
    1b1e:	00 
    1b1f:	c7 44 24 4c 02 00 00 	movl   $0x2,0x4c(%rsp)
    1b26:	00 
    1b27:	c7 44 24 50 13 00 00 	movl   $0x13,0x50(%rsp)
    1b2e:	00 
    1b2f:	c7 44 24 54 10 00 00 	movl   $0x10,0x54(%rsp)
    1b36:	00 
    1b37:	c7 44 24 58 04 00 00 	movl   $0x4,0x58(%rsp)
    1b3e:	00 
    1b3f:	c7 44 24 5c 00 00 00 	movl   $0x0,0x5c(%rsp)
    1b46:	00 
    1b47:	c7 44 24 60 0c 00 00 	movl   $0xc,0x60(%rsp)
    1b4e:	00 
    1b4f:	48 8d 4c 24 08       	lea    0x8(%rsp),%rcx
    1b54:	48 8d 54 24 0c       	lea    0xc(%rsp),%rdx
    1b59:	48 8d 35 53 18 00 00 	lea    0x1853(%rip),%rsi        # 33b3 <_IO_stdin_used+0x3b3>
    1b60:	b8 00 00 00 00       	mov    $0x0,%eax
    1b65:	e8 56 f5 ff ff       	callq  10c0 <__isoc99_sscanf@plt>
    1b6a:	83 f8 02             	cmp    $0x2,%eax
    1b6d:	75 32                	jne    1ba1 <phase_6+0xfe>
    1b6f:	b9 00 00 00 00       	mov    $0x0,%ecx
    1b74:	ba 09 00 00 00       	mov    $0x9,%edx
    1b79:	8b 44 24 0c          	mov    0xc(%rsp),%eax
    1b7d:	85 c0                	test   %eax,%eax
    1b7f:	7e 13                	jle    1b94 <phase_6+0xf1>
    1b81:	48 63 d2             	movslq %edx,%rdx
    1b84:	8b 54 94 10          	mov    0x10(%rsp,%rdx,4),%edx
    1b88:	8d 0c 91             	lea    (%rcx,%rdx,4),%ecx
    1b8b:	83 e8 01             	sub    $0x1,%eax
    1b8e:	89 44 24 0c          	mov    %eax,0xc(%rsp)
    1b92:	eb e5                	jmp    1b79 <phase_6+0xd6>
    1b94:	39 4c 24 08          	cmp    %ecx,0x8(%rsp)
    1b98:	75 11                	jne    1bab <phase_6+0x108>
    1b9a:	b8 00 00 00 00       	mov    $0x0,%eax
    1b9f:	eb 05                	jmp    1ba6 <phase_6+0x103>
    1ba1:	b8 01 00 00 00       	mov    $0x1,%eax
    1ba6:	48 83 c4 78          	add    $0x78,%rsp
    1baa:	c3                   	retq   
    1bab:	b8 01 00 00 00       	mov    $0x1,%eax
    1bb0:	eb f4                	jmp    1ba6 <phase_6+0x103>

0000000000001bb2 <phase_7>:
    1bb2:	48 83 ec 58          	sub    $0x58,%rsp
    1bb6:	48 8d 74 24 30       	lea    0x30(%rsp),%rsi
    1bbb:	e8 cf fb ff ff       	callq  178f <read_six_numbers>
    1bc0:	83 f8 06             	cmp    $0x6,%eax
    1bc3:	0f 85 e0 00 00 00    	jne    1ca9 <phase_7+0xf7>
    1bc9:	be 00 00 00 00       	mov    $0x0,%esi
    1bce:	83 fe 05             	cmp    $0x5,%esi
    1bd1:	7f 35                	jg     1c08 <phase_7+0x56>
    1bd3:	48 63 c6             	movslq %esi,%rax
    1bd6:	8b 4c 84 30          	mov    0x30(%rsp,%rax,4),%ecx
    1bda:	8d 41 ff             	lea    -0x1(%rcx),%eax
    1bdd:	83 f8 05             	cmp    $0x5,%eax
    1be0:	0f 87 cd 00 00 00    	ja     1cb3 <phase_7+0x101>
    1be6:	83 c6 01             	add    $0x1,%esi
    1be9:	89 f0                	mov    %esi,%eax
    1beb:	eb 03                	jmp    1bf0 <phase_7+0x3e>
    1bed:	83 c0 01             	add    $0x1,%eax
    1bf0:	83 f8 05             	cmp    $0x5,%eax
    1bf3:	7f d9                	jg     1bce <phase_7+0x1c>
    1bf5:	48 63 d0             	movslq %eax,%rdx
    1bf8:	3b 4c 94 30          	cmp    0x30(%rsp,%rdx,4),%ecx
    1bfc:	75 ef                	jne    1bed <phase_7+0x3b>
    1bfe:	b8 01 00 00 00       	mov    $0x1,%eax
    1c03:	e9 a6 00 00 00       	jmpq   1cae <phase_7+0xfc>
    1c08:	be 00 00 00 00       	mov    $0x0,%esi
    1c0d:	eb 17                	jmp    1c26 <phase_7+0x74>
    1c0f:	48 8b 52 08          	mov    0x8(%rdx),%rdx
    1c13:	83 c0 01             	add    $0x1,%eax
    1c16:	48 63 ce             	movslq %esi,%rcx
    1c19:	39 44 8c 30          	cmp    %eax,0x30(%rsp,%rcx,4)
    1c1d:	7f f0                	jg     1c0f <phase_7+0x5d>
    1c1f:	48 89 14 cc          	mov    %rdx,(%rsp,%rcx,8)
    1c23:	83 c6 01             	add    $0x1,%esi
    1c26:	83 fe 05             	cmp    $0x5,%esi
    1c29:	7f 0e                	jg     1c39 <phase_7+0x87>
    1c2b:	b8 01 00 00 00       	mov    $0x1,%eax
    1c30:	48 8d 15 59 35 00 00 	lea    0x3559(%rip),%rdx        # 5190 <node1>
    1c37:	eb dd                	jmp    1c16 <phase_7+0x64>
    1c39:	48 8b 34 24          	mov    (%rsp),%rsi
    1c3d:	48 89 f1             	mov    %rsi,%rcx
    1c40:	b8 01 00 00 00       	mov    $0x1,%eax
    1c45:	eb 11                	jmp    1c58 <phase_7+0xa6>
    1c47:	48 63 d0             	movslq %eax,%rdx
    1c4a:	48 8b 14 d4          	mov    (%rsp,%rdx,8),%rdx
    1c4e:	48 89 51 08          	mov    %rdx,0x8(%rcx)
    1c52:	83 c0 01             	add    $0x1,%eax
    1c55:	48 89 d1             	mov    %rdx,%rcx
    1c58:	83 f8 05             	cmp    $0x5,%eax
    1c5b:	7e ea                	jle    1c47 <phase_7+0x95>
    1c5d:	48 c7 41 08 00 00 00 	movq   $0x0,0x8(%rcx)
    1c64:	00 
    1c65:	48 89 f0             	mov    %rsi,%rax
    1c68:	ba 00 00 00 00       	mov    $0x0,%edx
    1c6d:	83 fa 03             	cmp    $0x3,%edx
    1c70:	7f 13                	jg     1c85 <phase_7+0xd3>
    1c72:	8b 38                	mov    (%rax),%edi
    1c74:	48 8b 40 08          	mov    0x8(%rax),%rax
    1c78:	48 8b 48 08          	mov    0x8(%rax),%rcx
    1c7c:	3b 39                	cmp    (%rcx),%edi
    1c7e:	7c 3a                	jl     1cba <phase_7+0x108>
    1c80:	83 c2 01             	add    $0x1,%edx
    1c83:	eb e8                	jmp    1c6d <phase_7+0xbb>
    1c85:	b8 00 00 00 00       	mov    $0x0,%eax
    1c8a:	83 f8 02             	cmp    $0x2,%eax
    1c8d:	7f 13                	jg     1ca2 <phase_7+0xf0>
    1c8f:	48 8b 56 08          	mov    0x8(%rsi),%rdx
    1c93:	8b 3a                	mov    (%rdx),%edi
    1c95:	39 3e                	cmp    %edi,(%rsi)
    1c97:	7f 28                	jg     1cc1 <phase_7+0x10f>
    1c99:	48 8b 72 08          	mov    0x8(%rdx),%rsi
    1c9d:	83 c0 01             	add    $0x1,%eax
    1ca0:	eb e8                	jmp    1c8a <phase_7+0xd8>
    1ca2:	b8 00 00 00 00       	mov    $0x0,%eax
    1ca7:	eb 05                	jmp    1cae <phase_7+0xfc>
    1ca9:	b8 01 00 00 00       	mov    $0x1,%eax
    1cae:	48 83 c4 58          	add    $0x58,%rsp
    1cb2:	c3                   	retq   
    1cb3:	b8 01 00 00 00       	mov    $0x1,%eax
    1cb8:	eb f4                	jmp    1cae <phase_7+0xfc>
    1cba:	b8 01 00 00 00       	mov    $0x1,%eax
    1cbf:	eb ed                	jmp    1cae <phase_7+0xfc>
    1cc1:	b8 01 00 00 00       	mov    $0x1,%eax
    1cc6:	eb e6                	jmp    1cae <phase_7+0xfc>

0000000000001cc8 <append_to_string>:
    1cc8:	41 54                	push   %r12
    1cca:	55                   	push   %rbp
    1ccb:	53                   	push   %rbx
    1ccc:	49 89 fc             	mov    %rdi,%r12
    1ccf:	48 89 cb             	mov    %rcx,%rbx
    1cd2:	48 0f af f2          	imul   %rdx,%rsi
    1cd6:	48 89 f5             	mov    %rsi,%rbp
    1cd9:	48 03 71 08          	add    0x8(%rcx),%rsi
    1cdd:	48 8b 39             	mov    (%rcx),%rdi
    1ce0:	48 83 c6 01          	add    $0x1,%rsi
    1ce4:	e8 f7 f4 ff ff       	callq  11e0 <realloc@plt>
    1ce9:	48 85 c0             	test   %rax,%rax
    1cec:	74 2e                	je     1d1c <append_to_string+0x54>
    1cee:	48 89 03             	mov    %rax,(%rbx)
    1cf1:	48 03 43 08          	add    0x8(%rbx),%rax
    1cf5:	48 89 c7             	mov    %rax,%rdi
    1cf8:	48 89 ea             	mov    %rbp,%rdx
    1cfb:	4c 89 e6             	mov    %r12,%rsi
    1cfe:	e8 9d f3 ff ff       	callq  10a0 <memcpy@plt>
    1d03:	48 89 e8             	mov    %rbp,%rax
    1d06:	48 03 43 08          	add    0x8(%rbx),%rax
    1d0a:	48 89 43 08          	mov    %rax,0x8(%rbx)
    1d0e:	48 03 03             	add    (%rbx),%rax
    1d11:	c6 00 00             	movb   $0x0,(%rax)
    1d14:	48 89 e8             	mov    %rbp,%rax
    1d17:	5b                   	pop    %rbx
    1d18:	5d                   	pop    %rbp
    1d19:	41 5c                	pop    %r12
    1d1b:	c3                   	retq   
    1d1c:	bd 00 00 00 00       	mov    $0x0,%ebp
    1d21:	eb f1                	jmp    1d14 <append_to_string+0x4c>

0000000000001d23 <init_driver>:
    1d23:	41 56                	push   %r14
    1d25:	41 55                	push   %r13
    1d27:	41 54                	push   %r12
    1d29:	55                   	push   %rbp
    1d2a:	53                   	push   %rbx
    1d2b:	48 81 ec 00 20 00 00 	sub    $0x2000,%rsp
    1d32:	49 89 fc             	mov    %rdi,%r12
    1d35:	49 89 f5             	mov    %rsi,%r13
    1d38:	48 89 d5             	mov    %rdx,%rbp
    1d3b:	bf 03 00 00 00       	mov    $0x3,%edi
    1d40:	e8 1b f3 ff ff       	callq  1060 <curl_global_init@plt>
    1d45:	e8 16 f4 ff ff       	callq  1160 <curl_easy_init@plt>
    1d4a:	48 85 c0             	test   %rax,%rax
    1d4d:	0f 84 9a 00 00 00    	je     1ded <init_driver+0xca>
    1d53:	48 89 c3             	mov    %rax,%rbx
    1d56:	49 89 e6             	mov    %rsp,%r14
    1d59:	4d 89 e9             	mov    %r13,%r9
    1d5c:	4d 89 e0             	mov    %r12,%r8
    1d5f:	b9 bb 01 00 00       	mov    $0x1bb,%ecx
    1d64:	48 8d 15 a5 16 00 00 	lea    0x16a5(%rip),%rdx        # 3410 <_IO_stdin_used+0x410>
    1d6b:	48 8d 35 be 16 00 00 	lea    0x16be(%rip),%rsi        # 3430 <_IO_stdin_used+0x430>
    1d72:	4c 89 f7             	mov    %r14,%rdi
    1d75:	b8 00 00 00 00       	mov    $0x0,%eax
    1d7a:	e8 c1 f2 ff ff       	callq  1040 <sprintf@plt>
    1d7f:	4c 89 f2             	mov    %r14,%rdx
    1d82:	be 12 27 00 00       	mov    $0x2712,%esi
    1d87:	48 89 df             	mov    %rbx,%rdi
    1d8a:	b8 00 00 00 00       	mov    $0x0,%eax
    1d8f:	e8 6c f3 ff ff       	callq  1100 <curl_easy_setopt@plt>
    1d94:	ba 01 00 00 00       	mov    $0x1,%edx
    1d99:	be 2c 00 00 00       	mov    $0x2c,%esi
    1d9e:	48 89 df             	mov    %rbx,%rdi
    1da1:	b8 00 00 00 00       	mov    $0x0,%eax
    1da6:	e8 55 f3 ff ff       	callq  1100 <curl_easy_setopt@plt>
    1dab:	48 89 df             	mov    %rbx,%rdi
    1dae:	e8 bd f3 ff ff       	callq  1170 <curl_easy_perform@plt>
    1db3:	85 c0                	test   %eax,%eax
    1db5:	74 67                	je     1e1e <init_driver+0xfb>
    1db7:	89 c7                	mov    %eax,%edi
    1db9:	e8 d2 f3 ff ff       	callq  1190 <curl_easy_strerror@plt>
    1dbe:	48 89 c6             	mov    %rax,%rsi
    1dc1:	48 89 ef             	mov    %rbp,%rdi
    1dc4:	e8 e7 f2 ff ff       	callq  10b0 <strcpy@plt>
    1dc9:	bd 01 00 00 00       	mov    $0x1,%ebp
    1dce:	48 89 df             	mov    %rbx,%rdi
    1dd1:	e8 6a f3 ff ff       	callq  1140 <curl_easy_cleanup@plt>
    1dd6:	e8 95 f2 ff ff       	callq  1070 <curl_global_cleanup@plt>
    1ddb:	89 e8                	mov    %ebp,%eax
    1ddd:	48 81 c4 00 20 00 00 	add    $0x2000,%rsp
    1de4:	5b                   	pop    %rbx
    1de5:	5d                   	pop    %rbp
    1de6:	41 5c                	pop    %r12
    1de8:	41 5d                	pop    %r13
    1dea:	41 5e                	pop    %r14
    1dec:	c3                   	retq   
    1ded:	48 b8 43 61 6e 6e 6f 	movabs $0x6920746f6e6e6143,%rax
    1df4:	74 20 69 
    1df7:	48 ba 6e 69 74 20 63 	movabs $0x6e6e6f632074696e,%rdx
    1dfe:	6f 6e 6e 
    1e01:	48 89 45 00          	mov    %rax,0x0(%rbp)
    1e05:	48 89 55 08          	mov    %rdx,0x8(%rbp)
    1e09:	48 b8 65 63 74 69 6f 	movabs $0x2e6e6f69746365,%rax
    1e10:	6e 2e 00 
    1e13:	48 89 45 10          	mov    %rax,0x10(%rbp)
    1e17:	bd 01 00 00 00       	mov    $0x1,%ebp
    1e1c:	eb b8                	jmp    1dd6 <init_driver+0xb3>
    1e1e:	66 c7 45 00 4f 4b    	movw   $0x4b4f,0x0(%rbp)
    1e24:	c6 45 02 00          	movb   $0x0,0x2(%rbp)
    1e28:	bd 00 00 00 00       	mov    $0x0,%ebp
    1e2d:	eb 9f                	jmp    1dce <init_driver+0xab>

0000000000001e2f <driver_post>:
    1e2f:	41 57                	push   %r15
    1e31:	41 56                	push   %r14
    1e33:	41 55                	push   %r13
    1e35:	41 54                	push   %r12
    1e37:	55                   	push   %rbp
    1e38:	53                   	push   %rbx
    1e39:	48 81 ec 38 20 00 00 	sub    $0x2038,%rsp
    1e40:	48 89 3c 24          	mov    %rdi,(%rsp)
    1e44:	48 89 74 24 08       	mov    %rsi,0x8(%rsp)
    1e49:	41 89 d6             	mov    %edx,%r14d
    1e4c:	41 89 cd             	mov    %ecx,%r13d
    1e4f:	4d 89 c4             	mov    %r8,%r12
    1e52:	4c 89 cd             	mov    %r9,%rbp
    1e55:	bf 03 00 00 00       	mov    $0x3,%edi
    1e5a:	e8 01 f2 ff ff       	callq  1060 <curl_global_init@plt>
    1e5f:	e8 fc f2 ff ff       	callq  1160 <curl_easy_init@plt>
    1e64:	48 85 c0             	test   %rax,%rax
    1e67:	0f 84 49 01 00 00    	je     1fb6 <driver_post+0x187>
    1e6d:	48 89 c3             	mov    %rax,%rbx
    1e70:	ba 00 00 00 00       	mov    $0x0,%edx
    1e75:	4c 89 e6             	mov    %r12,%rsi
    1e78:	48 89 c7             	mov    %rax,%rdi
    1e7b:	e8 80 f3 ff ff       	callq  1200 <curl_easy_escape@plt>
    1e80:	49 89 c4             	mov    %rax,%r12
    1e83:	48 85 c0             	test   %rax,%rax
    1e86:	0f 84 5b 01 00 00    	je     1fe7 <driver_post+0x1b8>
    1e8c:	4c 8d 7c 24 30       	lea    0x30(%rsp),%r15
    1e91:	48 83 ec 08          	sub    $0x8,%rsp
    1e95:	50                   	push   %rax
    1e96:	41 56                	push   %r14
    1e98:	41 55                	push   %r13
    1e9a:	4c 8b 4c 24 28       	mov    0x28(%rsp),%r9
    1e9f:	4c 8b 44 24 20       	mov    0x20(%rsp),%r8
    1ea4:	b9 bb 01 00 00       	mov    $0x1bb,%ecx
    1ea9:	48 8d 15 60 15 00 00 	lea    0x1560(%rip),%rdx        # 3410 <_IO_stdin_used+0x410>
    1eb0:	48 8d 35 a1 15 00 00 	lea    0x15a1(%rip),%rsi        # 3458 <_IO_stdin_used+0x458>
    1eb7:	4c 89 ff             	mov    %r15,%rdi
    1eba:	b8 00 00 00 00       	mov    $0x0,%eax
    1ebf:	e8 7c f1 ff ff       	callq  1040 <sprintf@plt>
    1ec4:	48 83 c4 20          	add    $0x20,%rsp
    1ec8:	be 01 00 00 00       	mov    $0x1,%esi
    1ecd:	bf 01 00 00 00       	mov    $0x1,%edi
    1ed2:	e8 b9 f1 ff ff       	callq  1090 <calloc@plt>
    1ed7:	48 89 44 24 20       	mov    %rax,0x20(%rsp)
    1edc:	48 c7 44 24 28 00 00 	movq   $0x0,0x28(%rsp)
    1ee3:	00 00 
    1ee5:	4c 89 fa             	mov    %r15,%rdx
    1ee8:	be 12 27 00 00       	mov    $0x2712,%esi
    1eed:	48 89 df             	mov    %rbx,%rdi
    1ef0:	b8 00 00 00 00       	mov    $0x0,%eax
    1ef5:	e8 06 f2 ff ff       	callq  1100 <curl_easy_setopt@plt>
    1efa:	48 8d 15 0d 11 00 00 	lea    0x110d(%rip),%rdx        # 300e <_IO_stdin_used+0xe>
    1f01:	be 1f 27 00 00       	mov    $0x271f,%esi
    1f06:	48 89 df             	mov    %rbx,%rdi
    1f09:	b8 00 00 00 00       	mov    $0x0,%eax
    1f0e:	e8 ed f1 ff ff       	callq  1100 <curl_easy_setopt@plt>
    1f13:	48 8d 15 ae fd ff ff 	lea    -0x252(%rip),%rdx        # 1cc8 <append_to_string>
    1f1a:	be 2b 4e 00 00       	mov    $0x4e2b,%esi
    1f1f:	48 89 df             	mov    %rbx,%rdi
    1f22:	b8 00 00 00 00       	mov    $0x0,%eax
    1f27:	e8 d4 f1 ff ff       	callq  1100 <curl_easy_setopt@plt>
    1f2c:	48 8d 54 24 20       	lea    0x20(%rsp),%rdx
    1f31:	be 11 27 00 00       	mov    $0x2711,%esi
    1f36:	48 89 df             	mov    %rbx,%rdi
    1f39:	b8 00 00 00 00       	mov    $0x0,%eax
    1f3e:	e8 bd f1 ff ff       	callq  1100 <curl_easy_setopt@plt>
    1f43:	48 8d 15 d4 14 00 00 	lea    0x14d4(%rip),%rdx        # 341e <_IO_stdin_used+0x41e>
    1f4a:	be 22 27 00 00       	mov    $0x2722,%esi
    1f4f:	48 89 df             	mov    %rbx,%rdi
    1f52:	b8 00 00 00 00       	mov    $0x0,%eax
    1f57:	e8 a4 f1 ff ff       	callq  1100 <curl_easy_setopt@plt>
    1f5c:	48 89 df             	mov    %rbx,%rdi
    1f5f:	e8 0c f2 ff ff       	callq  1170 <curl_easy_perform@plt>
    1f64:	85 c0                	test   %eax,%eax
    1f66:	0f 84 b6 00 00 00    	je     2022 <driver_post+0x1f3>
    1f6c:	89 c7                	mov    %eax,%edi
    1f6e:	e8 1d f2 ff ff       	callq  1190 <curl_easy_strerror@plt>
    1f73:	48 89 c6             	mov    %rax,%rsi
    1f76:	48 89 ef             	mov    %rbp,%rdi
    1f79:	e8 32 f1 ff ff       	callq  10b0 <strcpy@plt>
    1f7e:	bd 01 00 00 00       	mov    $0x1,%ebp
    1f83:	48 8b 7c 24 20       	mov    0x20(%rsp),%rdi
    1f88:	e8 93 f1 ff ff       	callq  1120 <free@plt>
    1f8d:	4c 89 e7             	mov    %r12,%rdi
    1f90:	e8 bb f0 ff ff       	callq  1050 <curl_free@plt>
    1f95:	48 89 df             	mov    %rbx,%rdi
    1f98:	e8 a3 f1 ff ff       	callq  1140 <curl_easy_cleanup@plt>
    1f9d:	e8 ce f0 ff ff       	callq  1070 <curl_global_cleanup@plt>
    1fa2:	89 e8                	mov    %ebp,%eax
    1fa4:	48 81 c4 38 20 00 00 	add    $0x2038,%rsp
    1fab:	5b                   	pop    %rbx
    1fac:	5d                   	pop    %rbp
    1fad:	41 5c                	pop    %r12
    1faf:	41 5d                	pop    %r13
    1fb1:	41 5e                	pop    %r14
    1fb3:	41 5f                	pop    %r15
    1fb5:	c3                   	retq   
    1fb6:	48 b8 43 61 6e 6e 6f 	movabs $0x6920746f6e6e6143,%rax
    1fbd:	74 20 69 
    1fc0:	48 ba 6e 69 74 20 63 	movabs $0x6e6e6f632074696e,%rdx
    1fc7:	6f 6e 6e 
    1fca:	48 89 45 00          	mov    %rax,0x0(%rbp)
    1fce:	48 89 55 08          	mov    %rdx,0x8(%rbp)
    1fd2:	48 b8 65 63 74 69 6f 	movabs $0x2e6e6f69746365,%rax
    1fd9:	6e 2e 00 
    1fdc:	48 89 45 10          	mov    %rax,0x10(%rbp)
    1fe0:	bd 01 00 00 00       	mov    $0x1,%ebp
    1fe5:	eb b6                	jmp    1f9d <driver_post+0x16e>
    1fe7:	48 b8 43 61 6e 6e 6f 	movabs $0x5520746f6e6e6143,%rax
    1fee:	74 20 55 
    1ff1:	48 ba 52 4c 2d 65 6e 	movabs $0x646f636e652d4c52,%rdx
    1ff8:	63 6f 64 
    1ffb:	48 89 45 00          	mov    %rax,0x0(%rbp)
    1fff:	48 89 55 08          	mov    %rdx,0x8(%rbp)
    2003:	48 b8 65 20 73 6f 6c 	movabs $0x6974756c6f732065,%rax
    200a:	75 74 69 
    200d:	48 89 45 10          	mov    %rax,0x10(%rbp)
    2011:	c7 45 18 6f 6e 2e 00 	movl   $0x2e6e6f,0x18(%rbp)
    2018:	bd 01 00 00 00       	mov    $0x1,%ebp
    201d:	e9 73 ff ff ff       	jmpq   1f95 <driver_post+0x166>
    2022:	48 8d 54 24 18       	lea    0x18(%rsp),%rdx
    2027:	be 02 00 20 00       	mov    $0x200002,%esi
    202c:	48 89 df             	mov    %rbx,%rdi
    202f:	b8 00 00 00 00       	mov    $0x0,%eax
    2034:	e8 47 f0 ff ff       	callq  1080 <curl_easy_getinfo@plt>
    2039:	48 81 7c 24 18 c8 00 	cmpq   $0xc8,0x18(%rsp)
    2040:	00 00 
    2042:	74 23                	je     2067 <driver_post+0x238>
    2044:	48 b8 53 65 72 76 65 	movabs $0x6520726576726553,%rax
    204b:	72 20 65 
    204e:	48 89 45 00          	mov    %rax,0x0(%rbp)
    2052:	c7 45 08 72 72 6f 72 	movl   $0x726f7272,0x8(%rbp)
    2059:	c6 45 0c 00          	movb   $0x0,0xc(%rbp)
    205d:	bd 01 00 00 00       	mov    $0x1,%ebp
    2062:	e9 1c ff ff ff       	jmpq   1f83 <driver_post+0x154>
    2067:	48 8b 74 24 20       	mov    0x20(%rsp),%rsi
    206c:	48 89 ef             	mov    %rbp,%rdi
    206f:	e8 3c f0 ff ff       	callq  10b0 <strcpy@plt>
    2074:	b9 03 00 00 00       	mov    $0x3,%ecx
    2079:	48 8d 3d aa 13 00 00 	lea    0x13aa(%rip),%rdi        # 342a <_IO_stdin_used+0x42a>
    2080:	48 89 ee             	mov    %rbp,%rsi
    2083:	f3 a6                	repz cmpsb %es:(%rdi),%ds:(%rsi)
    2085:	40 0f 97 c5          	seta   %bpl
    2089:	40 80 dd 00          	sbb    $0x0,%bpl
    208d:	40 0f be ed          	movsbl %bpl,%ebp
    2091:	85 ed                	test   %ebp,%ebp
    2093:	0f 84 ea fe ff ff    	je     1f83 <driver_post+0x154>
    2099:	bd 01 00 00 00       	mov    $0x1,%ebp
    209e:	e9 e0 fe ff ff       	jmpq   1f83 <driver_post+0x154>
    20a3:	66 2e 0f 1f 84 00 00 	nopw   %cs:0x0(%rax,%rax,1)
    20aa:	00 00 00 
    20ad:	0f 1f 00             	nopl   (%rax)

00000000000020b0 <__libc_csu_init>:
    20b0:	41 57                	push   %r15
    20b2:	4c 8d 3d 1f 2d 00 00 	lea    0x2d1f(%rip),%r15        # 4dd8 <__frame_dummy_init_array_entry>
    20b9:	41 56                	push   %r14
    20bb:	49 89 d6             	mov    %rdx,%r14
    20be:	41 55                	push   %r13
    20c0:	49 89 f5             	mov    %rsi,%r13
    20c3:	41 54                	push   %r12
    20c5:	41 89 fc             	mov    %edi,%r12d
    20c8:	55                   	push   %rbp
    20c9:	48 8d 2d 10 2d 00 00 	lea    0x2d10(%rip),%rbp        # 4de0 <__init_array_end>
    20d0:	53                   	push   %rbx
    20d1:	4c 29 fd             	sub    %r15,%rbp
    20d4:	48 83 ec 08          	sub    $0x8,%rsp
    20d8:	e8 23 ef ff ff       	callq  1000 <_init>
    20dd:	48 c1 fd 03          	sar    $0x3,%rbp
    20e1:	74 1b                	je     20fe <__libc_csu_init+0x4e>
    20e3:	31 db                	xor    %ebx,%ebx
    20e5:	0f 1f 00             	nopl   (%rax)
    20e8:	4c 89 f2             	mov    %r14,%rdx
    20eb:	4c 89 ee             	mov    %r13,%rsi
    20ee:	44 89 e7             	mov    %r12d,%edi
    20f1:	41 ff 14 df          	callq  *(%r15,%rbx,8)
    20f5:	48 83 c3 01          	add    $0x1,%rbx
    20f9:	48 39 dd             	cmp    %rbx,%rbp
    20fc:	75 ea                	jne    20e8 <__libc_csu_init+0x38>
    20fe:	48 83 c4 08          	add    $0x8,%rsp
    2102:	5b                   	pop    %rbx
    2103:	5d                   	pop    %rbp
    2104:	41 5c                	pop    %r12
    2106:	41 5d                	pop    %r13
    2108:	41 5e                	pop    %r14
    210a:	41 5f                	pop    %r15
    210c:	c3                   	retq   
    210d:	0f 1f 00             	nopl   (%rax)

0000000000002110 <__libc_csu_fini>:
    2110:	c3                   	retq   

Disassembly of section .fini:

0000000000002114 <_fini>:
    2114:	48 83 ec 08          	sub    $0x8,%rsp
    2118:	48 83 c4 08          	add    $0x8,%rsp
    211c:	c3                   	retq   
